
bitcount.elf:     file format elf32-msp430

SYMBOL TABLE:
0000fffe l    d  __reset_vector	00000000 __reset_vector
00008000 l    d  .rodata	00000000 .rodata
00008110 l    d  .text	00000000 .text
00004000 l    d  .data	00000000 .data
00004002 l    d  .bss	00000000 .bss
00004014 l    d  .noinit	00000000 .noinit
00000000 l    d  .MP430.attributes	00000000 .MP430.attributes
00000000 l    d  .comment	00000000 .comment
00000000 l    d  .debug_aranges	00000000 .debug_aranges
00000000 l    d  .debug_info	00000000 .debug_info
00000000 l    d  .debug_abbrev	00000000 .debug_abbrev
00000000 l    d  .debug_line	00000000 .debug_line
00000000 l    d  .debug_frame	00000000 .debug_frame
00000000 l    d  .debug_str	00000000 .debug_str
00000000 l    d  .debug_loc	00000000 .debug_loc
00000000 l    d  .debug_macinfo	00000000 .debug_macinfo
00000000 l    d  .debug_ranges	00000000 .debug_ranges
00000000 l    df *ABS*	00000000 /opt/ti/ccsv8/tools/compiler/msp430-gcc-7.3.1.24_linux64/bin/../lib/gcc/msp430-elf/7.3.1/../../../../msp430-elf/lib/430/crt0.o
0000fffe l       __reset_vector	00000000 __msp430_resetvec_hook
0000816c l       .text	00000000 _msp430_run_array
0000817a l       .text	00000000 _msp430_run_done
00000000 l    df *ABS*	00000000 main.c
00008000 l     O .rodata	00000100 bits
00000000 l    df *ABS*	00000000 /opt/ti/ccsv8/tools/compiler/msp430-gcc-7.3.1.24_linux64/bin/../lib/gcc/msp430-elf/7.3.1/430/crtbegin.o
00008108 l     O .rodata	00000000 __CTOR_LIST__
0000810c l     O .rodata	00000000 __DTOR_LIST__
00008100 l     O .rodata	00000000 __EH_FRAME_BEGIN__
00008b8e l     O .text	00000000 __TMC_LIST__
00008180 l     F .text	00000000 deregister_tm_clones
0000819a l     F .text	00000000 register_tm_clones
000081c8 l     F .text	00000000 __do_global_dtors_aux
00004002 l     O .bss	00000000 completed.3056
00004004 l     O .bss	00000000 dtor_idx.3058
00008216 l     F .text	00000000 call___do_global_dtors_aux
00008216 l     F .text	00000000 frame_dummy
00004006 l     O .bss	00000000 object.3071
0000822e l     F .text	00000000 call_frame_dummy
00000000 l    df *ABS*	00000000 /opt/ti/ccsv8/tools/compiler/msp430-gcc-7.3.1.24_linux64/bin/../lib/gcc/msp430-elf/7.3.1/430/crtend.o
0000810a l     O .rodata	00000000 __CTOR_END__
00008100 l     O .rodata	00000000 __FRAME_END__
00008b58 l     F .text	00000000 __do_global_ctors_aux
00008b72 l     F .text	00000000 call___do_global_ctors_aux
00000000 l    df *ABS*	00000000 crt_bss.o
00000000 l    df *ABS*	00000000 crt_movedata.o
00000000 l    df *ABS*	00000000 crt_main.o
00000000 l    df *ABS*	00000000 srli.o
00000000 l    df *ABS*	00000000 lib2hw_mul_16.o
00000130 l       *ABS*	00000000 MPY_OP1
00000132 l       *ABS*	00000000 MPY_OP1_S
00000134 l       *ABS*	00000000 MAC_OP1
00000138 l       *ABS*	00000000 MPY_OP2
00000138 l       *ABS*	00000000 MAC_OP2
0000013a l       *ABS*	00000000 RESULT_LO
0000013c l       *ABS*	00000000 RESULT_HI
00000000 l    df *ABS*	00000000 lib2_mul_16bit.o
00000000 l    df *ABS*	00000000 _muldi3.o
00000000 l    df *ABS*	00000000 slli.o
00000000 l    df *ABS*	00000000 srai.o
00000000 l    df *ABS*	00000000 lib_a-memmove.o
00000000 l    df *ABS*	00000000 lib_a-memset.o
00000000 l    df *ABS*	00000000 /opt/ti/ccsv8/tools/compiler/msp430-gcc-7.3.1.24_linux64/bin/../lib/gcc/msp430-elf/7.3.1/../../../../msp430-elf/lib/430/crtn.o
0000884c g     F .text	00000000 __mspabi_mpyl
00008a64 g       .text	00000000 .hidden __mspabi_slll_9
00008a54 g       .text	00000000 .hidden __mspabi_slll_13
0000881c g     F .text	00000018 __mulsihi2
0000876c g       .text	00000000 .hidden __mspabi_srli_9
00008aa8 g       .text	00000000 .hidden __mspabi_srai_6
00008ab2 g       .text	00000000 .hidden __mspabi_srai_1
000087bc g       .text	00000000 .hidden __mspabi_srll_10
0000887e g     F .text	00000000 __mspabi_mpyull_hw
00008768 g       .text	00000000 .hidden __mspabi_srli_10
00008ad4 g       .text	00000000 .hidden __mspabi_sral_10
00008ac4 g       .text	00000000 .hidden __mspabi_sral_14
0000881c g     F .text	00000000 __mspabi_mpysl_hw
00008338 g     F .text	000000a4 ntbl_bitcount
00008a2e g       .text	00000000 .hidden __mspabi_slli_9
00008754 g       .text	00000000 .hidden __mspabi_srli_15
00008b0a g     F .text	00000038 memmove
00008882 g     F .text	00000000 __mspabi_mpyll_hw
00008780 g       .text	00000000 .hidden __mspabi_srli_4
00008a28 g       .text	00000000 .hidden __mspabi_slli_12
00008ad8 g       .text	00000000 .hidden __mspabi_sral_9
00008774 g       .text	00000000 .hidden __mspabi_srli_7
000087ce g       .text	00000000 .hidden __mspabi_srll_7
000087e6 g       .text	00000000 .hidden __mspabi_srll_3
00008ae4 g       .text	00000000 .hidden __mspabi_sral_6
00008af8 g       .text	00000000 .hidden __mspabi_sral_1
0000881c g     F .text	00000000 __mspabi_mpysl
0000884c g     F .text	0000002e __mulsi2
00008746 g       .text	00000000 .hidden __mspabi_func_epilog_6
00008a96 g       .text	00000000 .hidden __mspabi_srai_15
00008b8e g     O .text	00000000 .hidden __TMC_END__
000087aa g       .text	00000000 .hidden __mspabi_srll_13
0000810e g     O .rodata	00000000 .hidden __DTOR_END__
00008104 g       .rodata	00000000 __fini_array_end
00008760 g       .text	00000000 .hidden __mspabi_srli_12
00008ab0 g       .text	00000000 .hidden __mspabi_srai_2
00008aae g       .text	00000000 .hidden __mspabi_srai_3
0000884c g     F .text	00000000 __mspabi_mpyl_hw
00008110 g     F .text	00000004 __crt0_start
00008a5c g       .text	00000000 .hidden __mspabi_slll_11
00008a4c g       .text	00000000 .hidden __mspabi_slll_15
00004000 g     O .data	00000000 .hidden __dso_handle
00008a24 g       .text	00000000 .hidden __mspabi_slli_14
00008a38 g       .text	00000000 .hidden __mspabi_slli_4
00008114 g     F .text	0000000e __crt0_init_bss
00000012 g       *ABS*	00000000 __bsssize
00008a80 g       .text	00000000 .hidden __mspabi_slll_2
00008aa0 g       .text	00000000 .hidden __mspabi_srai_10
00008136 g     F .text	0000000a __crt0_call_init_then_main
00008750 g       .text	00000000 .hidden __mspabi_func_epilog_1
00008a46 g       .text	00000000 .hidden __mspabi_slli
0000874c g       .text	00000000 .hidden __mspabi_func_epilog_3
000087da g       .text	00000000 .hidden __mspabi_srll_5
00008798 g       .text	00000000 .hidden __mspabi_srli
0000887a g     F .text	00000000 __mspabi_mpysll_hw
00008808 g     F .text	00000000 __mspabi_mpyi_hw
00008808 g     F .text	00000014 __mulhi2
00008834 g     F .text	00000000 __mspabi_mpyul
000087b6 g       .text	00000000 .hidden __mspabi_srll_11
0000887a g     F .text	00000004 __muldisi2
00008a74 g       .text	00000000 .hidden __mspabi_slll_5
00008a2a g       .text	00000000 .hidden __mspabi_slli_11
00008a3a g       .text	00000000 .hidden __mspabi_slli_3
0000877c g       .text	00000000 .hidden __mspabi_srli_5
000083dc g     F .text	0000003e BW_btbl_bitcount
00000000  w      *UND*	00000000 __deregister_frame_info
00004014 g       .noinit	00000000 end
00008ad0 g       .text	00000000 .hidden __mspabi_sral_11
00008ac0 g       .text	00000000 .hidden __mspabi_sral_15
00008aa6 g       .text	00000000 .hidden __mspabi_srai_7
00000000  w      *UND*	00000000 _ITM_registerTMCloneTable
00008a3c g       .text	00000000 .hidden __mspabi_slli_2
000087d4 g       .text	00000000 .hidden __mspabi_srll_6
00008aec g       .text	00000000 .hidden __mspabi_sral_4
00008a70 g       .text	00000000 .hidden __mspabi_slll_6
00008110 g       .text	00000000 _start
000088da g     F .text	00000148 .hidden __mspabi_mpyll
00008a78 g       .text	00000000 .hidden __mspabi_slll_4
00008a68 g       .text	00000000 .hidden __mspabi_slll_8
0000815c g     F .text	00000000 _msp430_run_fini_array
0000878c g       .text	00000000 .hidden __mspabi_srli_1
000087a4 g       .text	00000000 .hidden __mspabi_srll_14
00008a34 g       .text	00000000 .hidden __mspabi_slli_6
00008296 g     F .text	000000a2 bitcount
00008aba g       .text	00000000 .hidden __mspabi_srai
00008808 g     F .text	00000000 __mspabi_mpyi
00008a9c g       .text	00000000 .hidden __mspabi_srai_12
00008758 g       .text	00000000 .hidden __mspabi_srli_14
00000002 g       *ABS*	00000000 __romdatacopysize
0000822e g     F .text	00000008 init
00008a50 g       .text	00000000 .hidden __mspabi_slll_14
00008ae0 g       .text	00000000 .hidden __mspabi_sral_7
00008aa4 g       .text	00000000 .hidden __mspabi_srai_8
00008764 g       .text	00000000 .hidden __mspabi_srli_11
00008af4 g       .text	00000000 .hidden __mspabi_sral_2
00008a6c g       .text	00000000 .hidden __mspabi_slll_7
00000000  w      *UND*	00000000 _ITM_deregisterTMCloneTable
00008104 g       .rodata	00000000 __fini_array_start
00000000  w      *ABS*	00000000 __rom_highdatacopysize
00008456 g     F .text	00000042 ntbl_bitcnt
00008b72 g       .text	00000000 __msp430_init
00008b42 g     F .text	00000014 memset
00008a58 g       .text	00000000 .hidden __mspabi_slll_12
000084c8 g     F .text	0000027c main
00008834 g     F .text	00000018 __umulsihi2
00008aa2 g       .text	00000000 .hidden __mspabi_srai_9
00008a9e g       .text	00000000 .hidden __mspabi_srai_11
000087e0 g       .text	00000000 .hidden __mspabi_srll_4
00008104 g       .rodata	00000000 __init_array_end
00008788 g       .text	00000000 .hidden __mspabi_srli_2
00008b04 g       .text	00000000 .hidden __mspabi_sral
00008498 g     F .text	00000030 bit_shifter
00008a3e g       .text	00000000 .hidden __mspabi_slli_1
00000000  w      *ABS*	00000000 __high_bsssize
00008a7c g       .text	00000000 .hidden __mspabi_slll_3
00008270 g     F .text	00000026 bit_count
00000000  w      *ABS*	00000000 __rom_highdatastart
00008b8e g       .text	00000000 __msp430_fini_end
00008adc g       .text	00000000 .hidden __mspabi_sral_8
00008ac8 g       .text	00000000 .hidden __mspabi_sral_13
000087b0 g       .text	00000000 .hidden __mspabi_srll_12
00008a36 g       .text	00000000 .hidden __mspabi_slli_5
0000887e g     F .text	00000004 __umuldisi2
00008834 g     F .text	00000000 _mspabi_mpyul_hw
00008b8e g       *ABS*	00000000 __romdatastart
00008a26 g       .text	00000000 .hidden __mspabi_slli_13
00008aac g       .text	00000000 .hidden __mspabi_srai_4
00008140 g     F .text	00000000 _msp430_run_init_array
00008778 g       .text	00000000 .hidden __mspabi_srli_6
00008104 g       .rodata	00000000 __preinit_array_end
00008a2c g       .text	00000000 .hidden __mspabi_slli_10
00008784 g       .text	00000000 .hidden __mspabi_srli_3
00000000  w      *ABS*	00000000 __high_datastart
00000000  w      *ABS*	00000000 __upper_data_init
00004002 g       .bss	00000000 __bssstart
00008748 g       .text	00000000 .hidden __mspabi_func_epilog_5
00008a98 g       .text	00000000 .hidden __mspabi_srai_14
00008a90 g       .text	00000000 .hidden __mspabi_slll
00008236 g     F .text	0000003a btbl_bitcnt
00008000 g       .noinit	00000000 __stack
000087c2 g       .text	00000000 .hidden __mspabi_srll_9
00008af0 g       .text	00000000 .hidden __mspabi_sral_3
00004002 g       .data	00000000 _edata
00008acc g       .text	00000000 .hidden __mspabi_sral_12
00008b84 g       .text	00000000 __msp430_init_end
00008802 g       .text	00000000 .hidden __mspabi_srll
00000000  w      *ABS*	00000000 __high_bssstart
00008a30 g       .text	00000000 .hidden __mspabi_slli_8
0000879e g       .text	00000000 .hidden __mspabi_srll_15
00008a60 g       .text	00000000 .hidden __mspabi_slll_10
00008a22 g       .text	00000000 .hidden __mspabi_slli_15
00008104 g       .rodata	00000000 __init_array_start
0000841a g     F .text	0000003c AR_btbl_bitcount
00008882 g     F .text	00000004 __muldi3
00008aaa g       .text	00000000 .hidden __mspabi_srai_5
00008a9a g       .text	00000000 .hidden __mspabi_srai_13
00008886 g     F .text	00000036 __mspabi_mpysll
0000875c g       .text	00000000 .hidden __mspabi_srli_13
00004000 g       .data	00000000 __datastart
00008a84 g       .text	00000000 .hidden __mspabi_slll_1
000087c8 g       .text	00000000 .hidden __mspabi_srll_8
000087f2 g       .text	00000000 .hidden __mspabi_srll_1
00008a32 g       .text	00000000 .hidden __mspabi_slli_7
00008104 g       .rodata	00000000 __preinit_array_start
00008122 g     F .text	00000014 __crt0_movedata
0000874e g       .text	00000000 .hidden __mspabi_func_epilog_2
000088bc g     F .text	0000001e __mspabi_mpyull
00000000  w      *UND*	00000000 __register_frame_info
00008ae8 g       .text	00000000 .hidden __mspabi_sral_5
0000814e g     F .text	00000000 _msp430_run_preinit_array
00008744 g       .text	00000000 .hidden __mspabi_func_epilog_7
0000874a g       .text	00000000 .hidden __mspabi_func_epilog_4
000087ec g       .text	00000000 .hidden __mspabi_srll_2
00008b84 g       .text	00000000 __msp430_fini
00008770 g       .text	00000000 .hidden __mspabi_srli_8



Disassembly of section .text:

00008110 <__crt0_start>:
    8110:	31 40 00 80 	mov	#32768,	r1	;#0x8000

00008114 <__crt0_init_bss>:
    8114:	3c 40 02 40 	mov	#16386,	r12	;#0x4002

00008118 <.Loc.74.1>:
    8118:	0d 43       	clr	r13		;

0000811a <.Loc.75.1>:
    811a:	3e 40 12 00 	mov	#18,	r14	;#0x0012

0000811e <.Loc.79.1>:
    811e:	b0 12 42 8b 	call	#35650		;#0x8b42

00008122 <__crt0_movedata>:
    8122:	3c 40 00 40 	mov	#16384,	r12	;#0x4000

00008126 <.Loc.116.1>:
    8126:	3d 40 8e 8b 	mov	#35726,	r13	;#0x8b8e

0000812a <.Loc.119.1>:
    812a:	0d 9c       	cmp	r12,	r13	;

0000812c <.Loc.120.1>:
    812c:	04 24       	jz	$+10     	;abs 0x8136

0000812e <.Loc.122.1>:
    812e:	3e 40 02 00 	mov	#2,	r14	;

00008132 <.Loc.124.1>:
    8132:	b0 12 0a 8b 	call	#35594		;#0x8b0a

00008136 <__crt0_call_init_then_main>:
    8136:	b0 12 72 8b 	call	#35698		;#0x8b72

0000813a <.Loc.196.1>:
    813a:	0c 43       	clr	r12		;

0000813c <.Loc.197.1>:
    813c:	b0 12 c8 84 	call	#33992		;#0x84c8

00008140 <_msp430_run_init_array>:
    8140:	34 40 04 81 	mov	#33028,	r4	;#0x8104

00008144 <.Loc.224.1>:
    8144:	35 40 04 81 	mov	#33028,	r5	;#0x8104

00008148 <.Loc.225.1>:
    8148:	26 43       	mov	#2,	r6	;r3 As==10

0000814a <.Loc.226.1>:
    814a:	30 40 6c 81 	br	#0x816c		;

0000814e <_msp430_run_preinit_array>:
    814e:	34 40 04 81 	mov	#33028,	r4	;#0x8104

00008152 <.Loc.232.1>:
    8152:	35 40 04 81 	mov	#33028,	r5	;#0x8104

00008156 <.Loc.233.1>:
    8156:	26 43       	mov	#2,	r6	;r3 As==10

00008158 <.Loc.234.1>:
    8158:	30 40 6c 81 	br	#0x816c		;

0000815c <_msp430_run_fini_array>:
    815c:	34 40 04 81 	mov	#33028,	r4	;#0x8104

00008160 <.Loc.240.1>:
    8160:	35 40 04 81 	mov	#33028,	r5	;#0x8104

00008164 <.Loc.241.1>:
    8164:	36 40 fe ff 	mov	#65534,	r6	;#0xfffe

00008168 <.Loc.242.1>:
    8168:	30 40 6c 81 	br	#0x816c		;

0000816c <_msp430_run_array>:
    816c:	05 94       	cmp	r4,	r5	;

0000816e <.Loc.246.1>:
    816e:	05 24       	jz	$+12     	;abs 0x817a

00008170 <.Loc.247.1>:
    8170:	27 44       	mov	@r4,	r7	;

00008172 <.Loc.248.1>:
    8172:	04 56       	add	r6,	r4	;

00008174 <.Loc.249.1>:
    8174:	a7 12       	call	@r7		;

00008176 <.Loc.250.1>:
    8176:	10 40 f4 ff 	br	0xfff4		;PC rel. 0x816c

0000817a <_msp430_run_done>:
    817a:	30 41       	ret			

0000817c <L0>:
    817c:	30 41       	ret			
    817e:	30 41       	ret			

00008180 <deregister_tm_clones>:
    8180:	3c 40 8e 8b 	mov	#35726,	r12	;#0x8b8e
    8184:	3c 90 8e 8b 	cmp	#35726,	r12	;#0x8b8e
    8188:	07 24       	jz	$+16     	;abs 0x8198
    818a:	3d 40 00 00 	mov	#0,	r13	;
    818e:	0d 93       	cmp	#0,	r13	;r3 As==00
    8190:	03 24       	jz	$+8      	;abs 0x8198
    8192:	3c 40 8e 8b 	mov	#35726,	r12	;#0x8b8e
    8196:	8d 12       	call	r13		;

00008198 <.L1>:
    8198:	30 41       	ret			

0000819a <register_tm_clones>:
    819a:	0a 12       	push	r10		;
    819c:	3a 40 8e 8b 	mov	#35726,	r10	;#0x8b8e
    81a0:	3a 80 8e 8b 	sub	#35726,	r10	;#0x8b8e
    81a4:	0a 11       	rra	r10		;
    81a6:	0c 4a       	mov	r10,	r12	;
    81a8:	b0 12 54 87 	call	#34644		;#0x8754
    81ac:	0c 5a       	add	r10,	r12	;
    81ae:	0d 4c       	mov	r12,	r13	;
    81b0:	0d 11       	rra	r13		;
    81b2:	0d 93       	cmp	#0,	r13	;r3 As==00
    81b4:	07 24       	jz	$+16     	;abs 0x81c4
    81b6:	3e 40 00 00 	mov	#0,	r14	;
    81ba:	0e 93       	cmp	#0,	r14	;r3 As==00
    81bc:	03 24       	jz	$+8      	;abs 0x81c4
    81be:	3c 40 8e 8b 	mov	#35726,	r12	;#0x8b8e
    81c2:	8e 12       	call	r14		;

000081c4 <.L9>:
    81c4:	3a 41       	pop	r10		;
    81c6:	30 41       	ret			

000081c8 <__do_global_dtors_aux>:
    81c8:	0a 12       	push	r10		;
    81ca:	09 12       	push	r9		;
    81cc:	c2 93 02 40 	cmp.b	#0,	&0x4002	;r3 As==00
    81d0:	17 20       	jnz	$+48     	;abs 0x8200
    81d2:	3a 40 0e 81 	mov	#33038,	r10	;#0x810e
    81d6:	3a 80 0c 81 	sub	#33036,	r10	;#0x810c
    81da:	0a 11       	rra	r10		;
    81dc:	3a 53       	add	#-1,	r10	;r3 As==11
    81de:	39 40 0c 81 	mov	#33036,	r9	;#0x810c

000081e2 <.L19>:
    81e2:	1c 42 04 40 	mov	&0x4004,r12	;0x4004
    81e6:	0c 9a       	cmp	r10,	r12	;
    81e8:	0d 28       	jnc	$+28     	;abs 0x8204
    81ea:	b0 12 80 81 	call	#33152		;#0x8180
    81ee:	3d 40 00 00 	mov	#0,	r13	;
    81f2:	0d 93       	cmp	#0,	r13	;r3 As==00
    81f4:	03 24       	jz	$+8      	;abs 0x81fc
    81f6:	3c 40 00 81 	mov	#33024,	r12	;#0x8100
    81fa:	8d 12       	call	r13		;

000081fc <.L21>:
    81fc:	d2 43 02 40 	mov.b	#1,	&0x4002	;r3 As==01

00008200 <.L17>:
    8200:	30 40 4e 87 	br	#0x874e		;

00008204 <.L20>:
    8204:	1c 53       	inc	r12		;
    8206:	82 4c 04 40 	mov	r12,	&0x4004	;
    820a:	0c 5c       	rla	r12		;
    820c:	0c 59       	add	r9,	r12	;
    820e:	2c 4c       	mov	@r12,	r12	;
    8210:	8c 12       	call	r12		;
    8212:	30 40 e2 81 	br	#0x81e2		;

00008216 <call___do_global_dtors_aux>:
    8216:	3e 40 00 00 	mov	#0,	r14	;
    821a:	0e 93       	cmp	#0,	r14	;r3 As==00
    821c:	05 24       	jz	$+12     	;abs 0x8228
    821e:	3d 40 06 40 	mov	#16390,	r13	;#0x4006
    8222:	3c 40 00 81 	mov	#33024,	r12	;#0x8100
    8226:	8e 12       	call	r14		;

00008228 <.L27>:
    8228:	b0 12 9a 81 	call	#33178		;#0x819a
    822c:	30 41       	ret			

0000822e <init>:
int bit_shifter(uint32_t x);

void init()
{

     WDTCTL = WDTPW | WDTHOLD; // Stop WDT
    822e:	b2 40 80 5a 	mov	#23168,	&0x0120	;#0x5a80
    8232:	20 01 

00008234 <.Loc.58.1>:
    //__delay_cycles(3);

    /* init FRAM */
    //FRCTL0_H |= (FWPW) >> 8;

}
    8234:	30 41       	ret			

00008236 <btbl_bitcnt>:

int btbl_bitcnt(uint32_t x)
{
    8236:	0a 12       	push	r10		;

00008238 <.LCFI0>:
    8238:	09 12       	push	r9		;

0000823a <.LCFI1>:
    823a:	08 12       	push	r8		;

0000823c <.LCFI2>:
      int cnt = bits[ ((char *)&x)[0] & 0xFF ];
    823c:	39 40 00 80 	mov	#32768,	r9	;#0x8000
    8240:	4e 4c       	mov.b	r12,	r14	;
    8242:	0e 59       	add	r9,	r14	;
    8244:	68 4e       	mov.b	@r14,	r8	;

00008246 <.Loc.64.1>:

      if (0L != (x >>= 8))
    8246:	b0 12 c8 87 	call	#34760		;#0x87c8

0000824a <.LVL2>:
    824a:	0a 4c       	mov	r12,	r10	;
    824c:	0a dd       	bis	r13,	r10	;
    824e:	0a 93       	cmp	#0,	r10	;r3 As==00
    8250:	0b 24       	jz	$+24     	;abs 0x8268
    8252:	4a 43       	clr.b	r10		;

00008254 <.L6>:
    8254:	0a 58       	add	r8,	r10	;

00008256 <.Loc.62.1>:

}

int btbl_bitcnt(uint32_t x)
{
      int cnt = bits[ ((char *)&x)[0] & 0xFF ];
    8256:	4e 4c       	mov.b	r12,	r14	;
    8258:	0e 59       	add	r9,	r14	;
    825a:	68 4e       	mov.b	@r14,	r8	;

0000825c <.Loc.64.1>:

      if (0L != (x >>= 8))
    825c:	b0 12 c8 87 	call	#34760		;#0x87c8

00008260 <.LVL5>:
    8260:	0e 4c       	mov	r12,	r14	;
    8262:	0e dd       	bis	r13,	r14	;
    8264:	0e 93       	cmp	#0,	r14	;r3 As==00
    8266:	f6 23       	jnz	$-18     	;abs 0x8254

00008268 <.L4>:
            cnt += btbl_bitcnt(x);
      return cnt;
}
    8268:	0c 48       	mov	r8,	r12	;
    826a:	0c 5a       	add	r10,	r12	;
    826c:	30 40 4c 87 	br	#0x874c		;

00008270 <bit_count>:
int bit_count(uint32_t x)
{
    8270:	0e 4c       	mov	r12,	r14	;

00008272 <.Loc.72.1>:
        int n = 0;

        if (x) do
    8272:	0c dd       	bis	r13,	r12	;

00008274 <.LVL9>:
    8274:	0c 93       	cmp	#0,	r12	;r3 As==00
    8276:	0e 24       	jz	$+30     	;abs 0x8294

00008278 <.LBB16>:
            cnt += btbl_bitcnt(x);
      return cnt;
}
int bit_count(uint32_t x)
{
        int n = 0;
    8278:	4c 43       	clr.b	r12		;

0000827a <.L12>:

        if (x) do
              n++;
    827a:	1c 53       	inc	r12		;

0000827c <.Loc.74.1>:
        while (0 != (x = x&(x-1))) ;
    827c:	0b 4e       	mov	r14,	r11	;
    827e:	3b 53       	add	#-1,	r11	;r3 As==11
    8280:	0f 4d       	mov	r13,	r15	;
    8282:	3f 63       	addc	#-1,	r15	;r3 As==11
    8284:	0b fe       	and	r14,	r11	;
    8286:	0f fd       	and	r13,	r15	;
    8288:	0e 4b       	mov	r11,	r14	;

0000828a <.LVL12>:
    828a:	0d 4f       	mov	r15,	r13	;

0000828c <.LVL13>:
    828c:	0f 4b       	mov	r11,	r15	;
    828e:	0f dd       	bis	r13,	r15	;
    8290:	0f 93       	cmp	#0,	r15	;r3 As==00
    8292:	f3 23       	jnz	$-24     	;abs 0x827a

00008294 <.L9>:
        return(n);
}
    8294:	30 41       	ret			

00008296 <bitcount>:
int bitcount(uint32_t i)
{
    8296:	0a 12       	push	r10		;

00008298 <.LCFI3>:
    8298:	09 12       	push	r9		;

0000829a <.LCFI4>:
    829a:	08 12       	push	r8		;

0000829c <.LCFI5>:
    829c:	07 12       	push	r7		;

0000829e <.LCFI6>:
      i = ((i & 0xAAAAAAAAL) >>  1) + (i & 0x55555555L);
    829e:	0a 4c       	mov	r12,	r10	;
    82a0:	0b 4d       	mov	r13,	r11	;
    82a2:	12 c3       	clrc			
    82a4:	0b 10       	rrc	r11		;
    82a6:	0a 10       	rrc	r10		;
    82a8:	0e 4a       	mov	r10,	r14	;
    82aa:	3e f0 55 55 	and	#21845,	r14	;#0x5555
    82ae:	08 4b       	mov	r11,	r8	;
    82b0:	38 f0 55 55 	and	#21845,	r8	;#0x5555
    82b4:	09 4c       	mov	r12,	r9	;
    82b6:	39 f0 55 55 	and	#21845,	r9	;#0x5555
    82ba:	0f 4d       	mov	r13,	r15	;
    82bc:	3f f0 55 55 	and	#21845,	r15	;#0x5555
    82c0:	09 5e       	add	r14,	r9	;
    82c2:	08 6f       	addc	r15,	r8	;

000082c4 <.LVL16>:
      i = ((i & 0xCCCCCCCCL) >>  2) + (i & 0x33333333L);
    82c4:	0c 49       	mov	r9,	r12	;
    82c6:	0d 48       	mov	r8,	r13	;
    82c8:	b0 12 ec 87 	call	#34796		;#0x87ec
    82cc:	0e 4c       	mov	r12,	r14	;
    82ce:	3e f0 33 33 	and	#13107,	r14	;#0x3333
    82d2:	07 4d       	mov	r13,	r7	;
    82d4:	37 f0 33 33 	and	#13107,	r7	;#0x3333
    82d8:	0a 49       	mov	r9,	r10	;
    82da:	3a f0 33 33 	and	#13107,	r10	;#0x3333
    82de:	0c 48       	mov	r8,	r12	;
    82e0:	3c f0 33 33 	and	#13107,	r12	;#0x3333
    82e4:	0a 5e       	add	r14,	r10	;
    82e6:	07 6c       	addc	r12,	r7	;

000082e8 <.LVL18>:
      i = ((i & 0xF0F0F0F0L) >>  4) + (i & 0x0F0F0F0FL);
    82e8:	0c 4a       	mov	r10,	r12	;
    82ea:	0d 47       	mov	r7,	r13	;
    82ec:	b0 12 e0 87 	call	#34784		;#0x87e0
    82f0:	0e 4c       	mov	r12,	r14	;
    82f2:	3e f0 0f 0f 	and	#3855,	r14	;#0x0f0f
    82f6:	08 4d       	mov	r13,	r8	;
    82f8:	38 f0 0f 0f 	and	#3855,	r8	;#0x0f0f
    82fc:	09 4a       	mov	r10,	r9	;
    82fe:	39 f0 0f 0f 	and	#3855,	r9	;#0x0f0f
    8302:	0c 47       	mov	r7,	r12	;
    8304:	3c f0 0f 0f 	and	#3855,	r12	;#0x0f0f
    8308:	09 5e       	add	r14,	r9	;
    830a:	08 6c       	addc	r12,	r8	;

0000830c <.LVL20>:
      i = ((i & 0xFF00FF00L) >>  8) + (i & 0x00FF00FFL);
    830c:	0c 49       	mov	r9,	r12	;
    830e:	0d 48       	mov	r8,	r13	;
    8310:	b0 12 c8 87 	call	#34760		;#0x87c8
    8314:	4e 4c       	mov.b	r12,	r14	;
    8316:	4f 4d       	mov.b	r13,	r15	;
    8318:	0a 49       	mov	r9,	r10	;
    831a:	7a f0 ff 00 	and.b	#255,	r10	;#0x00ff
    831e:	0d 48       	mov	r8,	r13	;
    8320:	7d f0 ff 00 	and.b	#255,	r13	;#0x00ff
    8324:	0a 5e       	add	r14,	r10	;
    8326:	0d 6f       	addc	r15,	r13	;

00008328 <.LVL22>:
      i = ((i & 0xFFFF0000L) >> 16) + (i & 0x0000FFFFL);
    8328:	0c 4a       	mov	r10,	r12	;
    832a:	7e 40 10 00 	mov.b	#16,	r14	;#0x0010
    832e:	b0 12 02 88 	call	#34818		;#0x8802

00008332 <.LVL23>:
      return (int)i;
}
    8332:	0c 5a       	add	r10,	r12	;
    8334:	30 40 4a 87 	br	#0x874a		;

00008338 <ntbl_bitcount>:
int ntbl_bitcount(uint32_t x)
{
    8338:	0a 12       	push	r10		;

0000833a <.LCFI7>:
    833a:	09 12       	push	r9		;

0000833c <.LCFI8>:
    833c:	08 12       	push	r8		;

0000833e <.LCFI9>:
    833e:	07 12       	push	r7		;

00008340 <.LCFI10>:
    8340:	08 4c       	mov	r12,	r8	;
    8342:	07 4d       	mov	r13,	r7	;

00008344 <.Loc.90.1>:
      return
            bits[ (int) (x & 0x0000000FUL)       ] +
            bits[ (int)((x & 0x000000F0UL) >> 4) ] +
    8344:	39 40 00 80 	mov	#32768,	r9	;#0x8000
    8348:	b0 12 e0 87 	call	#34784		;#0x87e0

0000834c <.LVL25>:
    834c:	7c f0 0f 00 	and.b	#15,	r12	;#0x000f
    8350:	0c 59       	add	r9,	r12	;

00008352 <.Loc.89.1>:
      return (int)i;
}
int ntbl_bitcount(uint32_t x)
{
      return
            bits[ (int) (x & 0x0000000FUL)       ] +
    8352:	0d 48       	mov	r8,	r13	;
    8354:	7d f0 0f 00 	and.b	#15,	r13	;#0x000f
    8358:	0d 59       	add	r9,	r13	;
    835a:	6a 4d       	mov.b	@r13,	r10	;
    835c:	6c 4c       	mov.b	@r12,	r12	;
    835e:	0a 5c       	add	r12,	r10	;

00008360 <.Loc.91.1>:
            bits[ (int)((x & 0x000000F0UL) >> 4) ] +
            bits[ (int)((x & 0x00000F00UL) >> 8) ] +
    8360:	0c 48       	mov	r8,	r12	;
    8362:	0d 47       	mov	r7,	r13	;
    8364:	b0 12 c8 87 	call	#34760		;#0x87c8
    8368:	7c f0 0f 00 	and.b	#15,	r12	;#0x000f
    836c:	0c 59       	add	r9,	r12	;

0000836e <.Loc.90.1>:
}
int ntbl_bitcount(uint32_t x)
{
      return
            bits[ (int) (x & 0x0000000FUL)       ] +
            bits[ (int)((x & 0x000000F0UL) >> 4) ] +
    836e:	6c 4c       	mov.b	@r12,	r12	;
    8370:	0a 5c       	add	r12,	r10	;

00008372 <.Loc.92.1>:
            bits[ (int)((x & 0x00000F00UL) >> 8) ] +
            bits[ (int)((x & 0x0000F000UL) >> 12)] +
    8372:	0c 48       	mov	r8,	r12	;
    8374:	0d 47       	mov	r7,	r13	;
    8376:	b0 12 b0 87 	call	#34736		;#0x87b0
    837a:	7c f0 0f 00 	and.b	#15,	r12	;#0x000f
    837e:	0c 59       	add	r9,	r12	;

00008380 <.Loc.91.1>:
int ntbl_bitcount(uint32_t x)
{
      return
            bits[ (int) (x & 0x0000000FUL)       ] +
            bits[ (int)((x & 0x000000F0UL) >> 4) ] +
            bits[ (int)((x & 0x00000F00UL) >> 8) ] +
    8380:	6c 4c       	mov.b	@r12,	r12	;
    8382:	0a 5c       	add	r12,	r10	;

00008384 <.Loc.93.1>:
            bits[ (int)((x & 0x0000F000UL) >> 12)] +
            bits[ (int)((x & 0x000F0000UL) >> 16)] +
    8384:	0c 48       	mov	r8,	r12	;
    8386:	0d 47       	mov	r7,	r13	;
    8388:	7e 40 10 00 	mov.b	#16,	r14	;#0x0010
    838c:	b0 12 02 88 	call	#34818		;#0x8802
    8390:	7c f0 0f 00 	and.b	#15,	r12	;#0x000f
    8394:	0c 59       	add	r9,	r12	;

00008396 <.Loc.92.1>:
{
      return
            bits[ (int) (x & 0x0000000FUL)       ] +
            bits[ (int)((x & 0x000000F0UL) >> 4) ] +
            bits[ (int)((x & 0x00000F00UL) >> 8) ] +
            bits[ (int)((x & 0x0000F000UL) >> 12)] +
    8396:	6c 4c       	mov.b	@r12,	r12	;
    8398:	0a 5c       	add	r12,	r10	;

0000839a <.Loc.94.1>:
            bits[ (int)((x & 0x000F0000UL) >> 16)] +
            bits[ (int)((x & 0x00F00000UL) >> 20)] +
    839a:	0c 48       	mov	r8,	r12	;
    839c:	0d 47       	mov	r7,	r13	;
    839e:	7e 40 14 00 	mov.b	#20,	r14	;#0x0014
    83a2:	b0 12 02 88 	call	#34818		;#0x8802
    83a6:	7c f0 0f 00 	and.b	#15,	r12	;#0x000f
    83aa:	0c 59       	add	r9,	r12	;

000083ac <.Loc.93.1>:
      return
            bits[ (int) (x & 0x0000000FUL)       ] +
            bits[ (int)((x & 0x000000F0UL) >> 4) ] +
            bits[ (int)((x & 0x00000F00UL) >> 8) ] +
            bits[ (int)((x & 0x0000F000UL) >> 12)] +
            bits[ (int)((x & 0x000F0000UL) >> 16)] +
    83ac:	6c 4c       	mov.b	@r12,	r12	;
    83ae:	0a 5c       	add	r12,	r10	;

000083b0 <.Loc.95.1>:
            bits[ (int)((x & 0x00F00000UL) >> 20)] +
            bits[ (int)((x & 0x0F000000UL) >> 24)] +
    83b0:	0c 48       	mov	r8,	r12	;
    83b2:	0d 47       	mov	r7,	r13	;
    83b4:	7e 40 18 00 	mov.b	#24,	r14	;#0x0018
    83b8:	b0 12 02 88 	call	#34818		;#0x8802
    83bc:	7c f0 0f 00 	and.b	#15,	r12	;#0x000f
    83c0:	0c 59       	add	r9,	r12	;

000083c2 <.Loc.94.1>:
            bits[ (int) (x & 0x0000000FUL)       ] +
            bits[ (int)((x & 0x000000F0UL) >> 4) ] +
            bits[ (int)((x & 0x00000F00UL) >> 8) ] +
            bits[ (int)((x & 0x0000F000UL) >> 12)] +
            bits[ (int)((x & 0x000F0000UL) >> 16)] +
            bits[ (int)((x & 0x00F00000UL) >> 20)] +
    83c2:	6c 4c       	mov.b	@r12,	r12	;
    83c4:	0a 5c       	add	r12,	r10	;

000083c6 <.Loc.96.1>:
            bits[ (int)((x & 0x0F000000UL) >> 24)] +
            bits[ (int)((x & 0xF0000000UL) >> 28)];
    83c6:	0c 48       	mov	r8,	r12	;
    83c8:	0d 47       	mov	r7,	r13	;
    83ca:	7e 40 1c 00 	mov.b	#28,	r14	;#0x001c
    83ce:	b0 12 02 88 	call	#34818		;#0x8802
    83d2:	0c 59       	add	r9,	r12	;

000083d4 <.Loc.97.1>:
}
    83d4:	6c 4c       	mov.b	@r12,	r12	;
    83d6:	0c 5a       	add	r10,	r12	;
    83d8:	30 40 4a 87 	br	#0x874a		;

000083dc <BW_btbl_bitcount>:
int BW_btbl_bitcount(uint32_t x)
{
    83dc:	0a 12       	push	r10		;

000083de <.LCFI11>:
    83de:	09 12       	push	r9		;

000083e0 <.LCFI12>:
    83e0:	08 12       	push	r8		;

000083e2 <.LCFI13>:
    83e2:	08 4d       	mov	r13,	r8	;

000083e4 <.Loc.108.1>:
            long y;
      } U;

      U.y = x;

      return bits[ U.ch[0] ] + bits[ U.ch[1] ] +
    83e4:	3a 40 00 80 	mov	#32768,	r10	;#0x8000
    83e8:	4d 4c       	mov.b	r12,	r13	;
    83ea:	0d 5a       	add	r10,	r13	;
    83ec:	69 4d       	mov.b	@r13,	r9	;
    83ee:	b0 12 70 87 	call	#34672		;#0x8770

000083f2 <.LVL33>:
    83f2:	3c f0 ff 00 	and	#255,	r12	;#0x00ff
    83f6:	0c 5a       	add	r10,	r12	;
    83f8:	6c 4c       	mov.b	@r12,	r12	;
    83fa:	09 5c       	add	r12,	r9	;

000083fc <.Loc.109.1>:
             bits[ U.ch[3] ] + bits[ U.ch[2] ];
    83fc:	0c 48       	mov	r8,	r12	;
    83fe:	b0 12 70 87 	call	#34672		;#0x8770
    8402:	3c f0 ff 00 	and	#255,	r12	;#0x00ff
    8406:	0c 5a       	add	r10,	r12	;

00008408 <.Loc.108.1>:
            long y;
      } U;

      U.y = x;

      return bits[ U.ch[0] ] + bits[ U.ch[1] ] +
    8408:	6c 4c       	mov.b	@r12,	r12	;
    840a:	0c 59       	add	r9,	r12	;

0000840c <.Loc.109.1>:
             bits[ U.ch[3] ] + bits[ U.ch[2] ];
    840c:	38 f0 ff 00 	and	#255,	r8	;#0x00ff
    8410:	0a 58       	add	r8,	r10	;

00008412 <.Loc.110.1>:
}
    8412:	6a 4a       	mov.b	@r10,	r10	;
    8414:	0c 5a       	add	r10,	r12	;
    8416:	30 40 4c 87 	br	#0x874c		;

0000841a <AR_btbl_bitcount>:
int AR_btbl_bitcount(uint32_t x)
{
    841a:	0a 12       	push	r10		;

0000841c <.LCFI14>:
    841c:	09 12       	push	r9		;

0000841e <.LCFI15>:
    841e:	08 12       	push	r8		;

00008420 <.LCFI16>:
    8420:	08 4d       	mov	r13,	r8	;

00008422 <.Loc.116.1>:
      unsigned char * Ptr = (unsigned char *) &x ;
      int Accu ;

      Accu  = bits[ *Ptr++ ];
    8422:	3a 40 00 80 	mov	#32768,	r10	;#0x8000
    8426:	4e 4c       	mov.b	r12,	r14	;
    8428:	0e 5a       	add	r10,	r14	;
    842a:	69 4e       	mov.b	@r14,	r9	;

0000842c <.LVL37>:
      Accu += bits[ *Ptr++ ];
    842c:	b0 12 70 87 	call	#34672		;#0x8770

00008430 <.LVL38>:
    8430:	3c f0 ff 00 	and	#255,	r12	;#0x00ff
    8434:	0c 5a       	add	r10,	r12	;
    8436:	6c 4c       	mov.b	@r12,	r12	;
    8438:	09 5c       	add	r12,	r9	;

0000843a <.Loc.118.1>:
      Accu += bits[ *Ptr++ ];
    843a:	4c 48       	mov.b	r8,	r12	;
    843c:	0c 5a       	add	r10,	r12	;
    843e:	6c 4c       	mov.b	@r12,	r12	;
    8440:	09 5c       	add	r12,	r9	;

00008442 <.LVL40>:
      Accu += bits[ *Ptr ];
    8442:	0c 48       	mov	r8,	r12	;
    8444:	b0 12 70 87 	call	#34672		;#0x8770
    8448:	3c f0 ff 00 	and	#255,	r12	;#0x00ff
    844c:	0a 5c       	add	r12,	r10	;

0000844e <.Loc.121.1>:
      return Accu;
}
    844e:	6c 4a       	mov.b	@r10,	r12	;
    8450:	0c 59       	add	r9,	r12	;
    8452:	30 40 4c 87 	br	#0x874c		;

00008456 <ntbl_bitcnt>:
int ntbl_bitcnt(uint32_t x)
{
    8456:	0a 12       	push	r10		;

00008458 <.LCFI17>:
    8458:	09 12       	push	r9		;

0000845a <.LCFI18>:
    845a:	08 12       	push	r8		;

0000845c <.LCFI19>:
      int cnt = bits[(int)(x & 0x0000000FL)];
    845c:	39 40 00 80 	mov	#32768,	r9	;#0x8000
    8460:	0e 4c       	mov	r12,	r14	;
    8462:	7e f0 0f 00 	and.b	#15,	r14	;#0x000f
    8466:	0e 59       	add	r9,	r14	;
    8468:	68 4e       	mov.b	@r14,	r8	;

0000846a <.Loc.126.1>:

      if (0L != (x >>= 4))
    846a:	b0 12 e0 87 	call	#34784		;#0x87e0

0000846e <.LVL44>:
    846e:	0a 4c       	mov	r12,	r10	;
    8470:	0a dd       	bis	r13,	r10	;
    8472:	0a 93       	cmp	#0,	r10	;r3 As==00
    8474:	0d 24       	jz	$+28     	;abs 0x8490
    8476:	4a 43       	clr.b	r10		;

00008478 <.L22>:
    8478:	0a 58       	add	r8,	r10	;

0000847a <.Loc.124.1>:
      Accu += bits[ *Ptr ];
      return Accu;
}
int ntbl_bitcnt(uint32_t x)
{
      int cnt = bits[(int)(x & 0x0000000FL)];
    847a:	0e 4c       	mov	r12,	r14	;
    847c:	7e f0 0f 00 	and.b	#15,	r14	;#0x000f
    8480:	0e 59       	add	r9,	r14	;
    8482:	68 4e       	mov.b	@r14,	r8	;

00008484 <.Loc.126.1>:

      if (0L != (x >>= 4))
    8484:	b0 12 e0 87 	call	#34784		;#0x87e0

00008488 <.LVL47>:
    8488:	0e 4c       	mov	r12,	r14	;
    848a:	0e dd       	bis	r13,	r14	;
    848c:	0e 93       	cmp	#0,	r14	;r3 As==00
    848e:	f4 23       	jnz	$-22     	;abs 0x8478

00008490 <.L20>:
            cnt += ntbl_bitcnt(x);

      return cnt;
}
    8490:	0c 48       	mov	r8,	r12	;
    8492:	0c 5a       	add	r10,	r12	;
    8494:	30 40 4c 87 	br	#0x874c		;

00008498 <bit_shifter>:

int bit_shifter(uint32_t x)
{
    8498:	0e 4c       	mov	r12,	r14	;
    849a:	0f 4d       	mov	r13,	r15	;

0000849c <.LVL50>:
  int i, n;
  for (i = n = 0; x && (i < (sizeof(uint32_t) * CHAR_BIT)); ++i, x >>= 1)
    849c:	0c dd       	bis	r13,	r12	;
    849e:	0c 93       	cmp	#0,	r12	;r3 As==00
    84a0:	12 24       	jz	$+38     	;abs 0x84c6
    84a2:	7b 40 20 00 	mov.b	#32,	r11	;#0x0020
    84a6:	4c 43       	clr.b	r12		;
    84a8:	30 40 b2 84 	br	#0x84b2		;

000084ac <.L35>:
    84ac:	3b 53       	add	#-1,	r11	;r3 As==11

000084ae <.Loc.135.1>:
    84ae:	0b 93       	cmp	#0,	r11	;r3 As==00
    84b0:	0a 24       	jz	$+22     	;abs 0x84c6

000084b2 <.L29>:
    n += (int)(x & 1L);
    84b2:	0d 4e       	mov	r14,	r13	;
    84b4:	5d f3       	and.b	#1,	r13	;r3 As==01
    84b6:	0c 5d       	add	r13,	r12	;

000084b8 <.Loc.135.1>:
}

int bit_shifter(uint32_t x)
{
  int i, n;
  for (i = n = 0; x && (i < (sizeof(uint32_t) * CHAR_BIT)); ++i, x >>= 1)
    84b8:	12 c3       	clrc			
    84ba:	0f 10       	rrc	r15		;
    84bc:	0e 10       	rrc	r14		;
    84be:	0d 4e       	mov	r14,	r13	;
    84c0:	0d df       	bis	r15,	r13	;
    84c2:	0d 93       	cmp	#0,	r13	;r3 As==00
    84c4:	f3 23       	jnz	$-24     	;abs 0x84ac

000084c6 <.L25>:
    n += (int)(x & 1L);
  return n;
}
    84c6:	30 41       	ret			

000084c8 <main>:


int main()
{
    84c8:	0a 12       	push	r10		;

000084ca <.LCFI20>:
    84ca:	09 12       	push	r9		;

000084cc <.LCFI21>:
    84cc:	08 12       	push	r8		;

000084ce <.LCFI22>:
    84ce:	07 12       	push	r7		;

000084d0 <.LCFI23>:
    84d0:	06 12       	push	r6		;

000084d2 <.LCFI24>:
    84d2:	05 12       	push	r5		;

000084d4 <.LCFI25>:
    84d4:	04 12       	push	r4		;

000084d6 <.LCFI26>:
    84d6:	31 80 18 00 	sub	#24,	r1	;#0x0018

000084da <.LBB32>:
int bit_shifter(uint32_t x);

void init()
{

     WDTCTL = WDTPW | WDTHOLD; // Stop WDT
    84da:	b2 40 80 5a 	mov	#23168,	&0x0120	;#0x5a80
    84de:	20 01 
    84e0:	34 40 00 80 	mov	#32768,	r4	;#0x8000

000084e4 <.LBE32>:
    /* Iterate through the 7 func statements 0 - 7*/
    /* Each statement executes a different bitcount routine, with a different seed value, a 100 times*/
    while(1){

    //Initialize the variables upon every loop
    n_0=0;
    84e4:	49 43       	clr.b	r9		;

000084e6 <.L59>:
    84e6:	81 49 0a 00 	mov	r9,	10(r1)	; 0x000a

000084ea <.Loc.156.1>:
    n_1=0;
    84ea:	81 49 0c 00 	mov	r9,	12(r1)	; 0x000c

000084ee <.Loc.157.1>:
    n_2=0;
    84ee:	81 49 0e 00 	mov	r9,	14(r1)	; 0x000e

000084f2 <.Loc.158.1>:
    n_3=0;
    84f2:	81 49 10 00 	mov	r9,	16(r1)	; 0x0010

000084f6 <.Loc.159.1>:
    n_4=0;
    84f6:	81 49 12 00 	mov	r9,	18(r1)	; 0x0012

000084fa <.Loc.160.1>:
    n_5=0;
    84fa:	81 49 14 00 	mov	r9,	20(r1)	; 0x0014

000084fe <.Loc.161.1>:
    n_6=0;
    84fe:	81 49 16 00 	mov	r9,	22(r1)	; 0x0016

00008502 <.Loc.165.1>:

    //Toggle LED upon every execution
    //P1OUT ^= 0x09;
	LED_CTRL ^= 0x0F;
    8502:	7c 40 90 00 	mov.b	#144,	r12	;#0x0090
    8506:	fc e0 0f 00 	xor.b	#15,	0(r12)	;#0x000f
    850a:	00 00 
    850c:	91 43 08 00 	mov	#1,	8(r1)	;r3 As==01
    8510:	48 43       	clr.b	r8		;

00008512 <.LVL58>:

    for (func = 0; func < 7; func++) {

        seed = (uint32_t)SEED;
        if(func == 0){
    8512:	08 93       	cmp	#0,	r8	;r3 As==00
    8514:	35 24       	jz	$+108    	;abs 0x8580

00008516 <.L38>:
            for(iter = 0; iter < ITER; ++iter, seed += 13){

                n_0 += bit_count(seed);
            }
        }
        else if(func == 1){
    8516:	18 93       	cmp	#1,	r8	;r3 As==01
    8518:	03 25       	jz	$+520    	;abs 0x8720

0000851a <.Loc.182.1>:
            for(iter = 0; iter < ITER; ++iter, seed += 13){

                n_1 += bitcount(seed);
            }
        }
        else if(func == 2){
    851a:	28 93       	cmp	#2,	r8	;r3 As==10
    851c:	ce 24       	jz	$+414    	;abs 0x86ba

0000851e <.Loc.188.1>:
            for(iter = 0; iter < ITER; ++iter, seed += 13){

                n_2 += ntbl_bitcnt(seed);
            }
        }
        else if(func == 3){
    851e:	38 90 03 00 	cmp	#3,	r8	;
    8522:	b9 24       	jz	$+372    	;abs 0x8696

00008524 <.Loc.194.1>:
            for(iter = 0; iter < ITER; ++iter, seed += 13){

                n_3 += ntbl_bitcount(seed);
            }
        }
        else if(func == 4){
    8524:	28 92       	cmp	#4,	r8	;r2 As==10
    8526:	81 24       	jz	$+260    	;abs 0x862a

00008528 <.Loc.200.1>:
            for(iter = 0; iter < ITER; ++iter, seed += 13){

                n_4 += BW_btbl_bitcount(seed);
            }
        }
        else if(func == 5){
    8528:	38 90 05 00 	cmp	#5,	r8	;
    852c:	47 24       	jz	$+144    	;abs 0x85bc

0000852e <.Loc.169.1>:
    //P1OUT ^= 0x09;
	LED_CTRL ^= 0x0F;

    for (func = 0; func < 7; func++) {

        seed = (uint32_t)SEED;
    852e:	6e 42       	mov.b	#4,	r14	;r2 As==10
    8530:	4f 43       	clr.b	r15		;

00008532 <.L51>:
    8532:	0c 4e       	mov	r14,	r12	;
    8534:	0d 4f       	mov	r15,	r13	;
    8536:	77 40 20 00 	mov.b	#32,	r7	;#0x0020

0000853a <.LBB34>:
}

int bit_shifter(uint32_t x)
{
  int i, n;
  for (i = n = 0; x && (i < (sizeof(uint32_t) * CHAR_BIT)); ++i, x >>= 1)
    853a:	46 43       	clr.b	r6		;
    853c:	30 40 46 85 	br	#0x8546		;

00008540 <.L92>:
    8540:	37 53       	add	#-1,	r7	;r3 As==11
    8542:	07 93       	cmp	#0,	r7	;r3 As==00
    8544:	0a 24       	jz	$+22     	;abs 0x855a

00008546 <.L55>:
    n += (int)(x & 1L);
    8546:	0a 4c       	mov	r12,	r10	;
    8548:	5a f3       	and.b	#1,	r10	;r3 As==01
    854a:	06 5a       	add	r10,	r6	;

0000854c <.Loc.135.1>:
}

int bit_shifter(uint32_t x)
{
  int i, n;
  for (i = n = 0; x && (i < (sizeof(uint32_t) * CHAR_BIT)); ++i, x >>= 1)
    854c:	12 c3       	clrc			
    854e:	0d 10       	rrc	r13		;
    8550:	0c 10       	rrc	r12		;
    8552:	0a 4c       	mov	r12,	r10	;
    8554:	0a dd       	bis	r13,	r10	;
    8556:	0a 93       	cmp	#0,	r10	;r3 As==00
    8558:	f3 23       	jnz	$-24     	;abs 0x8540

0000855a <.L53>:
            }
        }
        else if(func == 6){
            for(iter = 0; iter < ITER; ++iter, seed += 13){

                n_6 += bit_shifter(seed);
    855a:	81 56 16 00 	add	r6,	22(r1)	; 0x0016

0000855e <.Loc.207.1>:

                n_5 += AR_btbl_bitcount(seed);
            }
        }
        else if(func == 6){
            for(iter = 0; iter < ITER; ++iter, seed += 13){
    855e:	3e 50 0d 00 	add	#13,	r14	;#0x000d

00008562 <.LVL67>:
    8562:	0f 63       	adc	r15		;

00008564 <.LVL68>:
    8564:	3e 90 18 05 	cmp	#1304,	r14	;#0x0518
    8568:	e4 23       	jnz	$-54     	;abs 0x8532
    856a:	0f 93       	cmp	#0,	r15	;r3 As==00
    856c:	e2 23       	jnz	$-58     	;abs 0x8532

0000856e <.LVL69>:

    //Toggle LED upon every execution
    //P1OUT ^= 0x09;
	LED_CTRL ^= 0x0F;

    for (func = 0; func < 7; func++) {
    856e:	b1 90 07 00 	cmp	#7,	8(r1)	;
    8572:	08 00 
    8574:	b8 27       	jz	$-142    	;abs 0x84e6

00008576 <.L58>:
    8576:	18 53       	inc	r8		;
    8578:	91 53 08 00 	inc	8(r1)		;

0000857c <.LVL71>:

        seed = (uint32_t)SEED;
        if(func == 0){
    857c:	08 93       	cmp	#0,	r8	;r3 As==00
    857e:	cb 23       	jnz	$-104    	;abs 0x8516

00008580 <.L86>:
    //P1OUT ^= 0x09;
	LED_CTRL ^= 0x0F;

    for (func = 0; func < 7; func++) {

        seed = (uint32_t)SEED;
    8580:	6e 42       	mov.b	#4,	r14	;r2 As==10
    8582:	4f 43       	clr.b	r15		;

00008584 <.L74>:
    8584:	0c 4e       	mov	r14,	r12	;
    8586:	0d 4f       	mov	r15,	r13	;

00008588 <.LBB36>:
            cnt += btbl_bitcnt(x);
      return cnt;
}
int bit_count(uint32_t x)
{
        int n = 0;
    8588:	46 43       	clr.b	r6		;

0000858a <.L39>:

        if (x) do
              n++;
    858a:	16 53       	inc	r6		;

0000858c <.Loc.74.1>:
        while (0 != (x = x&(x-1))) ;
    858c:	07 4c       	mov	r12,	r7	;
    858e:	37 53       	add	#-1,	r7	;r3 As==11
    8590:	0a 4d       	mov	r13,	r10	;
    8592:	3a 63       	addc	#-1,	r10	;r3 As==11
    8594:	07 fc       	and	r12,	r7	;
    8596:	0a fd       	and	r13,	r10	;
    8598:	0c 47       	mov	r7,	r12	;

0000859a <.LVL75>:
    859a:	0d 4a       	mov	r10,	r13	;

0000859c <.LVL76>:
    859c:	0a 47       	mov	r7,	r10	;

0000859e <.LVL77>:
    859e:	0a dd       	bis	r13,	r10	;
    85a0:	0a 93       	cmp	#0,	r10	;r3 As==00
    85a2:	f3 23       	jnz	$-24     	;abs 0x858a

000085a4 <.LBE36>:

        seed = (uint32_t)SEED;
        if(func == 0){
            for(iter = 0; iter < ITER; ++iter, seed += 13){

                n_0 += bit_count(seed);
    85a4:	81 56 0a 00 	add	r6,	10(r1)	; 0x000a

000085a8 <.Loc.171.1>:

    for (func = 0; func < 7; func++) {

        seed = (uint32_t)SEED;
        if(func == 0){
            for(iter = 0; iter < ITER; ++iter, seed += 13){
    85a8:	3e 50 0d 00 	add	#13,	r14	;#0x000d

000085ac <.LVL79>:
    85ac:	0f 63       	adc	r15		;

000085ae <.LVL80>:
    85ae:	3e 90 18 05 	cmp	#1304,	r14	;#0x0518
    85b2:	e8 23       	jnz	$-46     	;abs 0x8584
    85b4:	0f 93       	cmp	#0,	r15	;r3 As==00
    85b6:	e6 23       	jnz	$-50     	;abs 0x8584
    85b8:	30 40 76 85 	br	#0x8576		;

000085bc <.L91>:
    85bc:	75 40 11 00 	mov.b	#17,	r5	;#0x0011
    85c0:	0e 49       	mov	r9,	r14	;
    85c2:	0d 49       	mov	r9,	r13	;
    85c4:	0a 49       	mov	r9,	r10	;
    85c6:	5f 43       	mov.b	#1,	r15	;r3 As==01

000085c8 <.Loc.169.1>:
    //P1OUT ^= 0x09;
	LED_CTRL ^= 0x0F;

    for (func = 0; func < 7; func++) {

        seed = (uint32_t)SEED;
    85c8:	66 42       	mov.b	#4,	r6	;r2 As==10
    85ca:	47 43       	clr.b	r7		;
    85cc:	30 40 0e 86 	br	#0x860e		;

000085d0 <.L93>:
    85d0:	0c 44       	mov	r4,	r12	;
    85d2:	0c 55       	add	r5,	r12	;
    85d4:	6f 4c       	mov.b	@r12,	r15	;
    85d6:	0c 46       	mov	r6,	r12	;
    85d8:	81 4f 02 00 	mov	r15,	2(r1)	;
    85dc:	b0 12 70 87 	call	#34672		;#0x8770
    85e0:	3c f0 ff 00 	and	#255,	r12	;#0x00ff
    85e4:	0c 54       	add	r4,	r12	;
    85e6:	6a 4c       	mov.b	@r12,	r10	;
    85e8:	4c 47       	mov.b	r7,	r12	;
    85ea:	0c 54       	add	r4,	r12	;
    85ec:	6d 4c       	mov.b	@r12,	r13	;
    85ee:	0c 47       	mov	r7,	r12	;
    85f0:	81 4d 00 00 	mov	r13,	0(r1)	;
    85f4:	b0 12 70 87 	call	#34672		;#0x8770
    85f8:	3c f0 ff 00 	and	#255,	r12	;#0x00ff
    85fc:	0c 54       	add	r4,	r12	;
    85fe:	6e 4c       	mov.b	@r12,	r14	;
    8600:	75 50 0d 00 	add.b	#13,	r5	;#0x000d
    8604:	35 f0 ff 00 	and	#255,	r5	;#0x00ff
    8608:	2d 41       	mov	@r1,	r13	;
    860a:	1f 41 02 00 	mov	2(r1),	r15	;

0000860e <.L52>:
{
      unsigned char * Ptr = (unsigned char *) &x ;
      int Accu ;

      Accu  = bits[ *Ptr++ ];
      Accu += bits[ *Ptr++ ];
    860e:	0c 4a       	mov	r10,	r12	;
    8610:	0c 5f       	add	r15,	r12	;

00008612 <.Loc.118.1>:
      Accu += bits[ *Ptr++ ];
    8612:	0c 5d       	add	r13,	r12	;

00008614 <.LVL87>:
      Accu += bits[ *Ptr ];
    8614:	0e 5c       	add	r12,	r14	;

00008616 <.LBE40>:
            }
        }
        else if(func == 5){
            for(iter = 0; iter < ITER; ++iter, seed += 13){

                n_5 += AR_btbl_bitcount(seed);
    8616:	81 5e 14 00 	add	r14,	20(r1)	; 0x0014

0000861a <.Loc.201.1>:

                n_4 += BW_btbl_bitcount(seed);
            }
        }
        else if(func == 5){
            for(iter = 0; iter < ITER; ++iter, seed += 13){
    861a:	36 50 0d 00 	add	#13,	r6	;#0x000d

0000861e <.LVL88>:
    861e:	07 63       	adc	r7		;

00008620 <.LVL89>:
    8620:	35 90 18 00 	cmp	#24,	r5	;#0x0018
    8624:	d5 23       	jnz	$-84     	;abs 0x85d0
    8626:	30 40 76 85 	br	#0x8576		;

0000862a <.L90>:
    862a:	77 40 11 00 	mov.b	#17,	r7	;#0x0011
    862e:	0c 49       	mov	r9,	r12	;
    8630:	0f 49       	mov	r9,	r15	;
    8632:	0e 49       	mov	r9,	r14	;
    8634:	5d 43       	mov.b	#1,	r13	;r3 As==01

00008636 <.Loc.169.1>:
    //P1OUT ^= 0x09;
	LED_CTRL ^= 0x0F;

    for (func = 0; func < 7; func++) {

        seed = (uint32_t)SEED;
    8636:	65 42       	mov.b	#4,	r5	;r2 As==10
    8638:	46 43       	clr.b	r6		;
    863a:	30 40 7c 86 	br	#0x867c		;

0000863e <.L94>:
    863e:	0c 44       	mov	r4,	r12	;
    8640:	0c 57       	add	r7,	r12	;
    8642:	6d 4c       	mov.b	@r12,	r13	;
    8644:	0c 45       	mov	r5,	r12	;
    8646:	81 4d 00 00 	mov	r13,	0(r1)	;
    864a:	b0 12 70 87 	call	#34672		;#0x8770
    864e:	3c f0 ff 00 	and	#255,	r12	;#0x00ff
    8652:	0c 54       	add	r4,	r12	;
    8654:	6e 4c       	mov.b	@r12,	r14	;
    8656:	0c 46       	mov	r6,	r12	;
    8658:	81 4e 02 00 	mov	r14,	2(r1)	;
    865c:	b0 12 70 87 	call	#34672		;#0x8770
    8660:	3c f0 ff 00 	and	#255,	r12	;#0x00ff
    8664:	0c 54       	add	r4,	r12	;
    8666:	6f 4c       	mov.b	@r12,	r15	;
    8668:	4c 46       	mov.b	r6,	r12	;
    866a:	0c 54       	add	r4,	r12	;
    866c:	6c 4c       	mov.b	@r12,	r12	;
    866e:	77 50 0d 00 	add.b	#13,	r7	;#0x000d
    8672:	37 f0 ff 00 	and	#255,	r7	;#0x00ff
    8676:	2d 41       	mov	@r1,	r13	;
    8678:	1e 41 02 00 	mov	2(r1),	r14	;

0000867c <.L50>:
            long y;
      } U;

      U.y = x;

      return bits[ U.ch[0] ] + bits[ U.ch[1] ] +
    867c:	0d 5e       	add	r14,	r13	;
    867e:	0d 5f       	add	r15,	r13	;

00008680 <.Loc.109.1>:
             bits[ U.ch[3] ] + bits[ U.ch[2] ];
    8680:	0c 5d       	add	r13,	r12	;

00008682 <.LBE42>:
            }
        }
        else if(func == 4){
            for(iter = 0; iter < ITER; ++iter, seed += 13){

                n_4 += BW_btbl_bitcount(seed);
    8682:	81 5c 12 00 	add	r12,	18(r1)	; 0x0012

00008686 <.Loc.195.1>:

                n_3 += ntbl_bitcount(seed);
            }
        }
        else if(func == 4){
            for(iter = 0; iter < ITER; ++iter, seed += 13){
    8686:	35 50 0d 00 	add	#13,	r5	;#0x000d

0000868a <.LVL95>:
    868a:	06 63       	adc	r6		;

0000868c <.LVL96>:
    868c:	37 90 18 00 	cmp	#24,	r7	;#0x0018
    8690:	d6 23       	jnz	$-82     	;abs 0x863e
    8692:	30 40 76 85 	br	#0x8576		;

00008696 <.L89>:
    //P1OUT ^= 0x09;
	LED_CTRL ^= 0x0F;

    for (func = 0; func < 7; func++) {

        seed = (uint32_t)SEED;
    8696:	66 42       	mov.b	#4,	r6	;r2 As==10
    8698:	47 43       	clr.b	r7		;

0000869a <.L76>:
            }
        }
        else if(func == 3){
            for(iter = 0; iter < ITER; ++iter, seed += 13){

                n_3 += ntbl_bitcount(seed);
    869a:	0c 46       	mov	r6,	r12	;
    869c:	0d 47       	mov	r7,	r13	;
    869e:	b0 12 38 83 	call	#33592		;#0x8338
    86a2:	81 5c 10 00 	add	r12,	16(r1)	; 0x0010

000086a6 <.Loc.189.1>:

                n_2 += ntbl_bitcnt(seed);
            }
        }
        else if(func == 3){
            for(iter = 0; iter < ITER; ++iter, seed += 13){
    86a6:	36 50 0d 00 	add	#13,	r6	;#0x000d

000086aa <.LVL100>:
    86aa:	07 63       	adc	r7		;

000086ac <.LVL101>:
    86ac:	36 90 18 05 	cmp	#1304,	r6	;#0x0518
    86b0:	f4 23       	jnz	$-22     	;abs 0x869a
    86b2:	07 93       	cmp	#0,	r7	;r3 As==00
    86b4:	f2 23       	jnz	$-26     	;abs 0x869a
    86b6:	30 40 76 85 	br	#0x8576		;

000086ba <.L88>:
    86ba:	75 40 11 00 	mov.b	#17,	r5	;#0x0011

000086be <.Loc.169.1>:
    //P1OUT ^= 0x09;
	LED_CTRL ^= 0x0F;

    for (func = 0; func < 7; func++) {

        seed = (uint32_t)SEED;
    86be:	a1 42 04 00 	mov	#4,	4(r1)	;r2 As==10
    86c2:	81 43 06 00 	mov	#0,	6(r1)	;r3 As==00
    86c6:	47 43       	clr.b	r7		;

000086c8 <.LBB44>:
      Accu += bits[ *Ptr ];
      return Accu;
}
int ntbl_bitcnt(uint32_t x)
{
      int cnt = bits[(int)(x & 0x0000000FL)];
    86c8:	5a 43       	mov.b	#1,	r10	;r3 As==01
    86ca:	0c 4a       	mov	r10,	r12	;
    86cc:	0a 47       	mov	r7,	r10	;
    86ce:	07 4c       	mov	r12,	r7	;

000086d0 <.L44>:
            }
        }
        else if(func == 2){
            for(iter = 0; iter < ITER; ++iter, seed += 13){

                n_2 += ntbl_bitcnt(seed);
    86d0:	0e 4a       	mov	r10,	r14	;
    86d2:	0e 57       	add	r7,	r14	;
    86d4:	81 5e 0e 00 	add	r14,	14(r1)	; 0x000e

000086d8 <.Loc.183.1>:

                n_1 += bitcount(seed);
            }
        }
        else if(func == 2){
            for(iter = 0; iter < ITER; ++iter, seed += 13){
    86d8:	b1 50 0d 00 	add	#13,	4(r1)	;#0x000d
    86dc:	04 00 
    86de:	81 63 06 00 	adc	6(r1)		;

000086e2 <.LVL104>:
    86e2:	35 90 18 05 	cmp	#1304,	r5	;#0x0518
    86e6:	47 27       	jz	$-368    	;abs 0x8576

000086e8 <.LBB47>:
      Accu += bits[ *Ptr ];
      return Accu;
}
int ntbl_bitcnt(uint32_t x)
{
      int cnt = bits[(int)(x & 0x0000000FL)];
    86e8:	0c 45       	mov	r5,	r12	;
    86ea:	7c f0 0f 00 	and.b	#15,	r12	;#0x000f
    86ee:	0c 54       	add	r4,	r12	;
    86f0:	67 4c       	mov.b	@r12,	r7	;

000086f2 <.Loc.126.1>:

      if (0L != (x >>= 4))
    86f2:	1c 41 04 00 	mov	4(r1),	r12	;
    86f6:	1d 41 06 00 	mov	6(r1),	r13	;
    86fa:	b0 12 e0 87 	call	#34784		;#0x87e0

000086fe <.LVL106>:
    86fe:	4a 43       	clr.b	r10		;

00008700 <.L46>:
    8700:	0a 57       	add	r7,	r10	;

00008702 <.Loc.124.1>:
      Accu += bits[ *Ptr ];
      return Accu;
}
int ntbl_bitcnt(uint32_t x)
{
      int cnt = bits[(int)(x & 0x0000000FL)];
    8702:	0e 4c       	mov	r12,	r14	;
    8704:	7e f0 0f 00 	and.b	#15,	r14	;#0x000f
    8708:	0e 54       	add	r4,	r14	;
    870a:	67 4e       	mov.b	@r14,	r7	;

0000870c <.Loc.126.1>:

      if (0L != (x >>= 4))
    870c:	b0 12 e0 87 	call	#34784		;#0x87e0

00008710 <.LVL109>:
    8710:	0e 4c       	mov	r12,	r14	;
    8712:	0e dd       	bis	r13,	r14	;
    8714:	0e 93       	cmp	#0,	r14	;r3 As==00
    8716:	f4 23       	jnz	$-22     	;abs 0x8700
    8718:	35 50 0d 00 	add	#13,	r5	;#0x000d
    871c:	30 40 d0 86 	br	#0x86d0		;

00008720 <.L87>:
    //P1OUT ^= 0x09;
	LED_CTRL ^= 0x0F;

    for (func = 0; func < 7; func++) {

        seed = (uint32_t)SEED;
    8720:	66 42       	mov.b	#4,	r6	;r2 As==10
    8722:	47 43       	clr.b	r7		;

00008724 <.L75>:
            }
        }
        else if(func == 1){
            for(iter = 0; iter < ITER; ++iter, seed += 13){

                n_1 += bitcount(seed);
    8724:	0c 46       	mov	r6,	r12	;
    8726:	0d 47       	mov	r7,	r13	;
    8728:	b0 12 96 82 	call	#33430		;#0x8296
    872c:	81 5c 0c 00 	add	r12,	12(r1)	; 0x000c

00008730 <.Loc.177.1>:

                n_0 += bit_count(seed);
            }
        }
        else if(func == 1){
            for(iter = 0; iter < ITER; ++iter, seed += 13){
    8730:	36 50 0d 00 	add	#13,	r6	;#0x000d

00008734 <.LVL113>:
    8734:	07 63       	adc	r7		;

00008736 <.LVL114>:
    8736:	36 90 18 05 	cmp	#1304,	r6	;#0x0518
    873a:	f4 23       	jnz	$-22     	;abs 0x8724
    873c:	07 93       	cmp	#0,	r7	;r3 As==00
    873e:	f2 23       	jnz	$-26     	;abs 0x8724
    8740:	30 40 76 85 	br	#0x8576		;

00008744 <__mspabi_func_epilog_7>:
    8744:	34 41       	pop	r4		;

00008746 <__mspabi_func_epilog_6>:
    8746:	35 41       	pop	r5		;

00008748 <__mspabi_func_epilog_5>:
    8748:	36 41       	pop	r6		;

0000874a <__mspabi_func_epilog_4>:
    874a:	37 41       	pop	r7		;

0000874c <__mspabi_func_epilog_3>:
    874c:	38 41       	pop	r8		;

0000874e <__mspabi_func_epilog_2>:
    874e:	39 41       	pop	r9		;

00008750 <__mspabi_func_epilog_1>:
    8750:	3a 41       	pop	r10		;
    8752:	30 41       	ret			

00008754 <__mspabi_srli_15>:
    8754:	12 c3       	clrc			
    8756:	0c 10       	rrc	r12		;

00008758 <__mspabi_srli_14>:
    8758:	12 c3       	clrc			
    875a:	0c 10       	rrc	r12		;

0000875c <__mspabi_srli_13>:
    875c:	12 c3       	clrc			
    875e:	0c 10       	rrc	r12		;

00008760 <__mspabi_srli_12>:
    8760:	12 c3       	clrc			
    8762:	0c 10       	rrc	r12		;

00008764 <__mspabi_srli_11>:
    8764:	12 c3       	clrc			
    8766:	0c 10       	rrc	r12		;

00008768 <__mspabi_srli_10>:
    8768:	12 c3       	clrc			
    876a:	0c 10       	rrc	r12		;

0000876c <__mspabi_srli_9>:
    876c:	12 c3       	clrc			
    876e:	0c 10       	rrc	r12		;

00008770 <__mspabi_srli_8>:
    8770:	12 c3       	clrc			
    8772:	0c 10       	rrc	r12		;

00008774 <__mspabi_srli_7>:
    8774:	12 c3       	clrc			
    8776:	0c 10       	rrc	r12		;

00008778 <__mspabi_srli_6>:
    8778:	12 c3       	clrc			
    877a:	0c 10       	rrc	r12		;

0000877c <__mspabi_srli_5>:
    877c:	12 c3       	clrc			
    877e:	0c 10       	rrc	r12		;

00008780 <__mspabi_srli_4>:
    8780:	12 c3       	clrc			
    8782:	0c 10       	rrc	r12		;

00008784 <__mspabi_srli_3>:
    8784:	12 c3       	clrc			
    8786:	0c 10       	rrc	r12		;

00008788 <__mspabi_srli_2>:
    8788:	12 c3       	clrc			
    878a:	0c 10       	rrc	r12		;

0000878c <__mspabi_srli_1>:
    878c:	12 c3       	clrc			
    878e:	0c 10       	rrc	r12		;
    8790:	30 41       	ret			

00008792 <.L11>:
    8792:	3d 53       	add	#-1,	r13	;r3 As==11
    8794:	12 c3       	clrc			
    8796:	0c 10       	rrc	r12		;

00008798 <__mspabi_srli>:
    8798:	0d 93       	cmp	#0,	r13	;r3 As==00
    879a:	fb 23       	jnz	$-8      	;abs 0x8792
    879c:	30 41       	ret			

0000879e <__mspabi_srll_15>:
    879e:	12 c3       	clrc			
    87a0:	0d 10       	rrc	r13		;
    87a2:	0c 10       	rrc	r12		;

000087a4 <__mspabi_srll_14>:
    87a4:	12 c3       	clrc			
    87a6:	0d 10       	rrc	r13		;
    87a8:	0c 10       	rrc	r12		;

000087aa <__mspabi_srll_13>:
    87aa:	12 c3       	clrc			
    87ac:	0d 10       	rrc	r13		;
    87ae:	0c 10       	rrc	r12		;

000087b0 <__mspabi_srll_12>:
    87b0:	12 c3       	clrc			
    87b2:	0d 10       	rrc	r13		;
    87b4:	0c 10       	rrc	r12		;

000087b6 <__mspabi_srll_11>:
    87b6:	12 c3       	clrc			
    87b8:	0d 10       	rrc	r13		;
    87ba:	0c 10       	rrc	r12		;

000087bc <__mspabi_srll_10>:
    87bc:	12 c3       	clrc			
    87be:	0d 10       	rrc	r13		;
    87c0:	0c 10       	rrc	r12		;

000087c2 <__mspabi_srll_9>:
    87c2:	12 c3       	clrc			
    87c4:	0d 10       	rrc	r13		;
    87c6:	0c 10       	rrc	r12		;

000087c8 <__mspabi_srll_8>:
    87c8:	12 c3       	clrc			
    87ca:	0d 10       	rrc	r13		;
    87cc:	0c 10       	rrc	r12		;

000087ce <__mspabi_srll_7>:
    87ce:	12 c3       	clrc			
    87d0:	0d 10       	rrc	r13		;
    87d2:	0c 10       	rrc	r12		;

000087d4 <__mspabi_srll_6>:
    87d4:	12 c3       	clrc			
    87d6:	0d 10       	rrc	r13		;
    87d8:	0c 10       	rrc	r12		;

000087da <__mspabi_srll_5>:
    87da:	12 c3       	clrc			
    87dc:	0d 10       	rrc	r13		;
    87de:	0c 10       	rrc	r12		;

000087e0 <__mspabi_srll_4>:
    87e0:	12 c3       	clrc			
    87e2:	0d 10       	rrc	r13		;
    87e4:	0c 10       	rrc	r12		;

000087e6 <__mspabi_srll_3>:
    87e6:	12 c3       	clrc			
    87e8:	0d 10       	rrc	r13		;
    87ea:	0c 10       	rrc	r12		;

000087ec <__mspabi_srll_2>:
    87ec:	12 c3       	clrc			
    87ee:	0d 10       	rrc	r13		;
    87f0:	0c 10       	rrc	r12		;

000087f2 <__mspabi_srll_1>:
    87f2:	12 c3       	clrc			
    87f4:	0d 10       	rrc	r13		;
    87f6:	0c 10       	rrc	r12		;
    87f8:	30 41       	ret			

000087fa <.L12>:
    87fa:	3e 53       	add	#-1,	r14	;r3 As==11
    87fc:	12 c3       	clrc			
    87fe:	0d 10       	rrc	r13		;
    8800:	0c 10       	rrc	r12		;

00008802 <__mspabi_srll>:
    8802:	0e 93       	cmp	#0,	r14	;r3 As==00
    8804:	fa 23       	jnz	$-10     	;abs 0x87fa
    8806:	30 41       	ret			

00008808 <__mspabi_mpyi>:
    8808:	02 12       	push	r2		;
    880a:	32 c2       	dint			
    880c:	03 43       	nop			
    880e:	82 4c 30 01 	mov	r12,	&0x0130	;
    8812:	82 4d 38 01 	mov	r13,	&0x0138	;
    8816:	1c 42 3a 01 	mov	&0x013a,r12	;0x013a
    881a:	00 13       	reti			

0000881c <__mspabi_mpysl>:
    881c:	02 12       	push	r2		;
    881e:	32 c2       	dint			
    8820:	03 43       	nop			
    8822:	82 4c 32 01 	mov	r12,	&0x0132	;
    8826:	82 4d 38 01 	mov	r13,	&0x0138	;
    882a:	1c 42 3a 01 	mov	&0x013a,r12	;0x013a
    882e:	1d 42 3c 01 	mov	&0x013c,r13	;0x013c
    8832:	00 13       	reti			

00008834 <__mspabi_mpyul>:
    8834:	02 12       	push	r2		;
    8836:	32 c2       	dint			
    8838:	03 43       	nop			
    883a:	82 4c 30 01 	mov	r12,	&0x0130	;
    883e:	82 4d 38 01 	mov	r13,	&0x0138	;
    8842:	1c 42 3a 01 	mov	&0x013a,r12	;0x013a
    8846:	1d 42 3c 01 	mov	&0x013c,r13	;0x013c
    884a:	00 13       	reti			

0000884c <__mspabi_mpyl>:
    884c:	02 12       	push	r2		;
    884e:	32 c2       	dint			
    8850:	03 43       	nop			
    8852:	82 4c 30 01 	mov	r12,	&0x0130	;
    8856:	82 4e 38 01 	mov	r14,	&0x0138	;
    885a:	82 4c 34 01 	mov	r12,	&0x0134	;
    885e:	1c 42 3a 01 	mov	&0x013a,r12	;0x013a
    8862:	92 42 3c 01 	mov	&0x013c,&0x013a	;0x013c
    8866:	3a 01 
    8868:	82 4f 38 01 	mov	r15,	&0x0138	;
    886c:	82 4d 34 01 	mov	r13,	&0x0134	;
    8870:	82 4e 38 01 	mov	r14,	&0x0138	;
    8874:	1d 42 3a 01 	mov	&0x013a,r13	;0x013a
    8878:	00 13       	reti			

0000887a <__mspabi_mpysll_hw>:
    887a:	10 40 0a 00 	br	0x000a		;PC rel. 0x8886

0000887e <__mspabi_mpyull_hw>:
    887e:	10 40 3c 00 	br	0x003c		;PC rel. 0x88bc

00008882 <__mspabi_mpyll_hw>:
    8882:	10 40 56 00 	br	0x0056		;PC rel. 0x88da

00008886 <__mspabi_mpysll>:
    8886:	0a 12       	push	r10		;

00008888 <.LCFI0>:
    8888:	09 12       	push	r9		;

0000888a <.LCFI1>:
    888a:	08 12       	push	r8		;

0000888c <.LCFI2>:
    888c:	07 12       	push	r7		;

0000888e <.LCFI3>:
    888e:	06 12       	push	r6		;

00008890 <.LCFI4>:
    8890:	05 12       	push	r5		;

00008892 <.LCFI5>:
    8892:	09 4d       	mov	r13,	r9	;
    8894:	05 4e       	mov	r14,	r5	;
    8896:	07 4f       	mov	r15,	r7	;

00008898 <.Loc.52.1>:
    8898:	08 4c       	mov	r12,	r8	;
    889a:	0c 4d       	mov	r13,	r12	;

0000889c <.LVL1>:
    889c:	b0 12 96 8a 	call	#35478		;#0x8a96

000088a0 <.LVL2>:
    88a0:	0a 4c       	mov	r12,	r10	;
    88a2:	06 45       	mov	r5,	r6	;
    88a4:	0c 47       	mov	r7,	r12	;
    88a6:	b0 12 96 8a 	call	#35478		;#0x8a96
    88aa:	0e 4c       	mov	r12,	r14	;
    88ac:	0c 45       	mov	r5,	r12	;
    88ae:	0d 47       	mov	r7,	r13	;
    88b0:	0f 4e       	mov	r14,	r15	;
    88b2:	0b 4a       	mov	r10,	r11	;
    88b4:	b0 12 da 88 	call	#35034		;#0x88da

000088b8 <.Loc.53.1>:
    88b8:	30 40 46 87 	br	#0x8746		;

000088bc <__mspabi_mpyull>:
    88bc:	0a 12       	push	r10		;

000088be <.LCFI6>:
    88be:	09 12       	push	r9		;

000088c0 <.LCFI7>:
    88c0:	08 12       	push	r8		;

000088c2 <.LCFI8>:
    88c2:	08 4c       	mov	r12,	r8	;
    88c4:	0c 4e       	mov	r14,	r12	;

000088c6 <.LVL6>:
    88c6:	09 4d       	mov	r13,	r9	;
    88c8:	0d 4f       	mov	r15,	r13	;
    88ca:	4e 43       	clr.b	r14		;

000088cc <.LVL7>:
    88cc:	0f 4e       	mov	r14,	r15	;
    88ce:	0a 4e       	mov	r14,	r10	;
    88d0:	0b 4e       	mov	r14,	r11	;
    88d2:	b0 12 da 88 	call	#35034		;#0x88da

000088d6 <.Loc.59.1>:
    88d6:	30 40 4c 87 	br	#0x874c		;

000088da <__mspabi_mpyll>:
    88da:	0a 12       	push	r10		;

000088dc <.LCFI0>:
    88dc:	09 12       	push	r9		;

000088de <.LCFI1>:
    88de:	08 12       	push	r8		;

000088e0 <.LCFI2>:
    88e0:	07 12       	push	r7		;

000088e2 <.LCFI3>:
    88e2:	06 12       	push	r6		;

000088e4 <.LCFI4>:
    88e4:	05 12       	push	r5		;

000088e6 <.LCFI5>:
    88e6:	04 12       	push	r4		;

000088e8 <.LCFI6>:
    88e8:	31 80 18 00 	sub	#24,	r1	;#0x0018

000088ec <.LCFI7>:
    88ec:	81 49 08 00 	mov	r9,	8(r1)	;
    88f0:	81 4a 10 00 	mov	r10,	16(r1)	; 0x0010
    88f4:	81 4b 12 00 	mov	r11,	18(r1)	; 0x0012
    88f8:	07 4c       	mov	r12,	r7	;
    88fa:	81 4d 0a 00 	mov	r13,	10(r1)	; 0x000a
    88fe:	81 4e 14 00 	mov	r14,	20(r1)	; 0x0014
    8902:	81 4f 16 00 	mov	r15,	22(r1)	; 0x0016

00008906 <.LBB2>:
    8906:	09 48       	mov	r8,	r9	;
    8908:	81 48 0c 00 	mov	r8,	12(r1)	; 0x000c
    890c:	0c 48       	mov	r8,	r12	;

0000890e <.LVL2>:
    890e:	1d 41 08 00 	mov	8(r1),	r13	;
    8912:	7e 40 10 00 	mov.b	#16,	r14	;#0x0010
    8916:	b0 12 02 88 	call	#34818		;#0x8802
    891a:	81 4c 00 00 	mov	r12,	0(r1)	;
    891e:	81 4d 02 00 	mov	r13,	2(r1)	;

00008922 <.LVL4>:
    8922:	81 47 0e 00 	mov	r7,	14(r1)	; 0x000e
    8926:	0c 47       	mov	r7,	r12	;
    8928:	1d 41 0a 00 	mov	10(r1),	r13	;0x0000a
    892c:	7e 40 10 00 	mov.b	#16,	r14	;#0x0010
    8930:	b0 12 02 88 	call	#34818		;#0x8802
    8934:	81 4c 04 00 	mov	r12,	4(r1)	;
    8938:	81 4d 06 00 	mov	r13,	6(r1)	;
    893c:	38 40 4c 88 	mov	#34892,	r8	;#0x884c

00008940 <.LVL8>:
    8940:	0e 47       	mov	r7,	r14	;
    8942:	4f 43       	clr.b	r15		;
    8944:	0c 49       	mov	r9,	r12	;
    8946:	0d 4f       	mov	r15,	r13	;
    8948:	88 12       	call	r8		;

0000894a <.LVL9>:
    894a:	04 4c       	mov	r12,	r4	;
    894c:	06 4c       	mov	r12,	r6	;
    894e:	05 4d       	mov	r13,	r5	;

00008950 <.LVL10>:
    8950:	0e 47       	mov	r7,	r14	;
    8952:	4f 43       	clr.b	r15		;
    8954:	2c 41       	mov	@r1,	r12	;
    8956:	1d 41 02 00 	mov	2(r1),	r13	;
    895a:	88 12       	call	r8		;

0000895c <.LVL11>:
    895c:	07 4c       	mov	r12,	r7	;
    895e:	0a 4d       	mov	r13,	r10	;

00008960 <.LVL13>:
    8960:	1e 41 04 00 	mov	4(r1),	r14	;
    8964:	1f 41 06 00 	mov	6(r1),	r15	;
    8968:	2c 41       	mov	@r1,	r12	;
    896a:	1d 41 02 00 	mov	2(r1),	r13	;
    896e:	88 12       	call	r8		;

00008970 <.LVL14>:
    8970:	81 4c 00 00 	mov	r12,	0(r1)	;

00008974 <.LVL15>:
    8974:	81 4d 02 00 	mov	r13,	2(r1)	;

00008978 <.LVL16>:
    8978:	1e 41 04 00 	mov	4(r1),	r14	;
    897c:	1f 41 06 00 	mov	6(r1),	r15	;
    8980:	0c 49       	mov	r9,	r12	;
    8982:	4d 43       	clr.b	r13		;
    8984:	88 12       	call	r8		;

00008986 <.LVL17>:
    8986:	09 4c       	mov	r12,	r9	;
    8988:	09 57       	add	r7,	r9	;
    898a:	08 4d       	mov	r13,	r8	;
    898c:	08 6a       	addc	r10,	r8	;
    898e:	0c 44       	mov	r4,	r12	;
    8990:	0d 45       	mov	r5,	r13	;
    8992:	7e 40 10 00 	mov.b	#16,	r14	;#0x0010
    8996:	b0 12 02 88 	call	#34818		;#0x8802
    899a:	09 5c       	add	r12,	r9	;
    899c:	0d 68       	addc	r8,	r13	;

0000899e <.LVL21>:
    899e:	0d 9a       	cmp	r10,	r13	;
    89a0:	04 28       	jnc	$+10     	;abs 0x89aa
    89a2:	0a 9d       	cmp	r13,	r10	;
    89a4:	06 20       	jnz	$+14     	;abs 0x89b2
    89a6:	09 97       	cmp	r7,	r9	;
    89a8:	04 2c       	jc	$+10     	;abs 0x89b2

000089aa <.L4>:
    89aa:	81 53 00 00 	add	#0,	0(r1)	;r3 As==00
    89ae:	91 63 02 00 	addc	#1,	2(r1)	;r3 As==01

000089b2 <.L2>:
    89b2:	0c 49       	mov	r9,	r12	;
    89b4:	7e 40 10 00 	mov.b	#16,	r14	;#0x0010
    89b8:	b0 12 02 88 	call	#34818		;#0x8802

000089bc <.LVL23>:
    89bc:	28 41       	mov	@r1,	r8	;
    89be:	08 5c       	add	r12,	r8	;
    89c0:	1d 61 02 00 	addc	2(r1),	r13	;
    89c4:	0a 4d       	mov	r13,	r10	;

000089c6 <.LVL24>:
    89c6:	47 43       	clr.b	r7		;
    89c8:	0c 49       	mov	r9,	r12	;
    89ca:	0d 47       	mov	r7,	r13	;
    89cc:	7e 40 10 00 	mov.b	#16,	r14	;#0x0010
    89d0:	b0 12 90 8a 	call	#35472		;#0x8a90
    89d4:	0c 56       	add	r6,	r12	;
    89d6:	0d 67       	addc	r7,	r13	;

000089d8 <.LBE3>:
    89d8:	04 4c       	mov	r12,	r4	;

000089da <.LVL26>:
    89da:	05 4d       	mov	r13,	r5	;

000089dc <.LVL27>:
    89dc:	06 48       	mov	r8,	r6	;
    89de:	07 4a       	mov	r10,	r7	;

000089e0 <.LBE2>:
    89e0:	3a 40 4c 88 	mov	#34892,	r10	;#0x884c
    89e4:	1e 41 14 00 	mov	20(r1),	r14	;0x00014
    89e8:	1f 41 16 00 	mov	22(r1),	r15	;0x00016
    89ec:	1c 41 0c 00 	mov	12(r1),	r12	;0x0000c
    89f0:	1d 41 08 00 	mov	8(r1),	r13	;
    89f4:	8a 12       	call	r10		;

000089f6 <.LVL28>:
    89f6:	09 47       	mov	r7,	r9	;
    89f8:	08 5c       	add	r12,	r8	;
    89fa:	09 6d       	addc	r13,	r9	;

000089fc <.Loc.555.1>:
    89fc:	1e 41 10 00 	mov	16(r1),	r14	;0x00010
    8a00:	1f 41 12 00 	mov	18(r1),	r15	;0x00012
    8a04:	1c 41 0e 00 	mov	14(r1),	r12	;0x0000e
    8a08:	1d 41 0a 00 	mov	10(r1),	r13	;0x0000a
    8a0c:	8a 12       	call	r10		;

00008a0e <.LVL29>:
    8a0e:	0e 48       	mov	r8,	r14	;
    8a10:	0e 5c       	add	r12,	r14	;
    8a12:	0d 69       	addc	r9,	r13	;
    8a14:	0f 4d       	mov	r13,	r15	;

00008a16 <.Loc.558.1>:
    8a16:	0c 44       	mov	r4,	r12	;
    8a18:	0d 45       	mov	r5,	r13	;
    8a1a:	31 50 18 00 	add	#24,	r1	;#0x0018

00008a1e <.LVL31>:
    8a1e:	30 40 44 87 	br	#0x8744		;

00008a22 <__mspabi_slli_15>:
    8a22:	0c 5c       	rla	r12		;

00008a24 <__mspabi_slli_14>:
    8a24:	0c 5c       	rla	r12		;

00008a26 <__mspabi_slli_13>:
    8a26:	0c 5c       	rla	r12		;

00008a28 <__mspabi_slli_12>:
    8a28:	0c 5c       	rla	r12		;

00008a2a <__mspabi_slli_11>:
    8a2a:	0c 5c       	rla	r12		;

00008a2c <__mspabi_slli_10>:
    8a2c:	0c 5c       	rla	r12		;

00008a2e <__mspabi_slli_9>:
    8a2e:	0c 5c       	rla	r12		;

00008a30 <__mspabi_slli_8>:
    8a30:	0c 5c       	rla	r12		;

00008a32 <__mspabi_slli_7>:
    8a32:	0c 5c       	rla	r12		;

00008a34 <__mspabi_slli_6>:
    8a34:	0c 5c       	rla	r12		;

00008a36 <__mspabi_slli_5>:
    8a36:	0c 5c       	rla	r12		;

00008a38 <__mspabi_slli_4>:
    8a38:	0c 5c       	rla	r12		;

00008a3a <__mspabi_slli_3>:
    8a3a:	0c 5c       	rla	r12		;

00008a3c <__mspabi_slli_2>:
    8a3c:	0c 5c       	rla	r12		;

00008a3e <__mspabi_slli_1>:
    8a3e:	0c 5c       	rla	r12		;
    8a40:	30 41       	ret			

00008a42 <.L11>:
    8a42:	3d 53       	add	#-1,	r13	;r3 As==11
    8a44:	0c 5c       	rla	r12		;

00008a46 <__mspabi_slli>:
    8a46:	0d 93       	cmp	#0,	r13	;r3 As==00
    8a48:	fc 23       	jnz	$-6      	;abs 0x8a42
    8a4a:	30 41       	ret			

00008a4c <__mspabi_slll_15>:
    8a4c:	0c 5c       	rla	r12		;
    8a4e:	0d 6d       	rlc	r13		;

00008a50 <__mspabi_slll_14>:
    8a50:	0c 5c       	rla	r12		;
    8a52:	0d 6d       	rlc	r13		;

00008a54 <__mspabi_slll_13>:
    8a54:	0c 5c       	rla	r12		;
    8a56:	0d 6d       	rlc	r13		;

00008a58 <__mspabi_slll_12>:
    8a58:	0c 5c       	rla	r12		;
    8a5a:	0d 6d       	rlc	r13		;

00008a5c <__mspabi_slll_11>:
    8a5c:	0c 5c       	rla	r12		;
    8a5e:	0d 6d       	rlc	r13		;

00008a60 <__mspabi_slll_10>:
    8a60:	0c 5c       	rla	r12		;
    8a62:	0d 6d       	rlc	r13		;

00008a64 <__mspabi_slll_9>:
    8a64:	0c 5c       	rla	r12		;
    8a66:	0d 6d       	rlc	r13		;

00008a68 <__mspabi_slll_8>:
    8a68:	0c 5c       	rla	r12		;
    8a6a:	0d 6d       	rlc	r13		;

00008a6c <__mspabi_slll_7>:
    8a6c:	0c 5c       	rla	r12		;
    8a6e:	0d 6d       	rlc	r13		;

00008a70 <__mspabi_slll_6>:
    8a70:	0c 5c       	rla	r12		;
    8a72:	0d 6d       	rlc	r13		;

00008a74 <__mspabi_slll_5>:
    8a74:	0c 5c       	rla	r12		;
    8a76:	0d 6d       	rlc	r13		;

00008a78 <__mspabi_slll_4>:
    8a78:	0c 5c       	rla	r12		;
    8a7a:	0d 6d       	rlc	r13		;

00008a7c <__mspabi_slll_3>:
    8a7c:	0c 5c       	rla	r12		;
    8a7e:	0d 6d       	rlc	r13		;

00008a80 <__mspabi_slll_2>:
    8a80:	0c 5c       	rla	r12		;
    8a82:	0d 6d       	rlc	r13		;

00008a84 <__mspabi_slll_1>:
    8a84:	0c 5c       	rla	r12		;
    8a86:	0d 6d       	rlc	r13		;
    8a88:	30 41       	ret			

00008a8a <.L12>:
    8a8a:	3e 53       	add	#-1,	r14	;r3 As==11
    8a8c:	0c 5c       	rla	r12		;
    8a8e:	0d 6d       	rlc	r13		;

00008a90 <__mspabi_slll>:
    8a90:	0e 93       	cmp	#0,	r14	;r3 As==00
    8a92:	fb 23       	jnz	$-8      	;abs 0x8a8a
    8a94:	30 41       	ret			

00008a96 <__mspabi_srai_15>:
    8a96:	0c 11       	rra	r12		;

00008a98 <__mspabi_srai_14>:
    8a98:	0c 11       	rra	r12		;

00008a9a <__mspabi_srai_13>:
    8a9a:	0c 11       	rra	r12		;

00008a9c <__mspabi_srai_12>:
    8a9c:	0c 11       	rra	r12		;

00008a9e <__mspabi_srai_11>:
    8a9e:	0c 11       	rra	r12		;

00008aa0 <__mspabi_srai_10>:
    8aa0:	0c 11       	rra	r12		;

00008aa2 <__mspabi_srai_9>:
    8aa2:	0c 11       	rra	r12		;

00008aa4 <__mspabi_srai_8>:
    8aa4:	0c 11       	rra	r12		;

00008aa6 <__mspabi_srai_7>:
    8aa6:	0c 11       	rra	r12		;

00008aa8 <__mspabi_srai_6>:
    8aa8:	0c 11       	rra	r12		;

00008aaa <__mspabi_srai_5>:
    8aaa:	0c 11       	rra	r12		;

00008aac <__mspabi_srai_4>:
    8aac:	0c 11       	rra	r12		;

00008aae <__mspabi_srai_3>:
    8aae:	0c 11       	rra	r12		;

00008ab0 <__mspabi_srai_2>:
    8ab0:	0c 11       	rra	r12		;

00008ab2 <__mspabi_srai_1>:
    8ab2:	0c 11       	rra	r12		;
    8ab4:	30 41       	ret			

00008ab6 <.L11>:
    8ab6:	3d 53       	add	#-1,	r13	;r3 As==11
    8ab8:	0c 11       	rra	r12		;

00008aba <__mspabi_srai>:
    8aba:	0d 93       	cmp	#0,	r13	;r3 As==00
    8abc:	fc 23       	jnz	$-6      	;abs 0x8ab6
    8abe:	30 41       	ret			

00008ac0 <__mspabi_sral_15>:
    8ac0:	0d 11       	rra	r13		;
    8ac2:	0c 10       	rrc	r12		;

00008ac4 <__mspabi_sral_14>:
    8ac4:	0d 11       	rra	r13		;
    8ac6:	0c 10       	rrc	r12		;

00008ac8 <__mspabi_sral_13>:
    8ac8:	0d 11       	rra	r13		;
    8aca:	0c 10       	rrc	r12		;

00008acc <__mspabi_sral_12>:
    8acc:	0d 11       	rra	r13		;
    8ace:	0c 10       	rrc	r12		;

00008ad0 <__mspabi_sral_11>:
    8ad0:	0d 11       	rra	r13		;
    8ad2:	0c 10       	rrc	r12		;

00008ad4 <__mspabi_sral_10>:
    8ad4:	0d 11       	rra	r13		;
    8ad6:	0c 10       	rrc	r12		;

00008ad8 <__mspabi_sral_9>:
    8ad8:	0d 11       	rra	r13		;
    8ada:	0c 10       	rrc	r12		;

00008adc <__mspabi_sral_8>:
    8adc:	0d 11       	rra	r13		;
    8ade:	0c 10       	rrc	r12		;

00008ae0 <__mspabi_sral_7>:
    8ae0:	0d 11       	rra	r13		;
    8ae2:	0c 10       	rrc	r12		;

00008ae4 <__mspabi_sral_6>:
    8ae4:	0d 11       	rra	r13		;
    8ae6:	0c 10       	rrc	r12		;

00008ae8 <__mspabi_sral_5>:
    8ae8:	0d 11       	rra	r13		;
    8aea:	0c 10       	rrc	r12		;

00008aec <__mspabi_sral_4>:
    8aec:	0d 11       	rra	r13		;
    8aee:	0c 10       	rrc	r12		;

00008af0 <__mspabi_sral_3>:
    8af0:	0d 11       	rra	r13		;
    8af2:	0c 10       	rrc	r12		;

00008af4 <__mspabi_sral_2>:
    8af4:	0d 11       	rra	r13		;
    8af6:	0c 10       	rrc	r12		;

00008af8 <__mspabi_sral_1>:
    8af8:	0d 11       	rra	r13		;
    8afa:	0c 10       	rrc	r12		;
    8afc:	30 41       	ret			

00008afe <.L12>:
    8afe:	3e 53       	add	#-1,	r14	;r3 As==11
    8b00:	0d 11       	rra	r13		;
    8b02:	0c 10       	rrc	r12		;

00008b04 <__mspabi_sral>:
    8b04:	0e 93       	cmp	#0,	r14	;r3 As==00
    8b06:	fb 23       	jnz	$-8      	;abs 0x8afe
    8b08:	30 41       	ret			

00008b0a <memmove>:
    8b0a:	0d 9c       	cmp	r12,	r13	;
    8b0c:	0a 28       	jnc	$+22     	;abs 0x8b22

00008b0e <.L5>:
    8b0e:	0f 4c       	mov	r12,	r15	;
    8b10:	0e 5c       	add	r12,	r14	;

00008b12 <.L3>:
    8b12:	0e 9f       	cmp	r15,	r14	;
    8b14:	0d 24       	jz	$+28     	;abs 0x8b30

00008b16 <.LVL3>:
    8b16:	ef 4d 00 00 	mov.b	@r13,	0(r15)	;
    8b1a:	1f 53       	inc	r15		;

00008b1c <.LVL4>:
    8b1c:	1d 53       	inc	r13		;
    8b1e:	30 40 12 8b 	br	#0x8b12		;

00008b22 <.L2>:
    8b22:	0f 4d       	mov	r13,	r15	;
    8b24:	0f 5e       	add	r14,	r15	;
    8b26:	0c 9f       	cmp	r15,	r12	;
    8b28:	f2 2f       	jc	$-26     	;abs 0x8b0e

00008b2a <.L4>:
    8b2a:	3e 53       	add	#-1,	r14	;r3 As==11

00008b2c <.LVL7>:
    8b2c:	3e 93       	cmp	#-1,	r14	;r3 As==11
    8b2e:	01 20       	jnz	$+4      	;abs 0x8b32

00008b30 <.L10>:
    8b30:	30 41       	ret			

00008b32 <.L6>:
    8b32:	0b 4c       	mov	r12,	r11	;
    8b34:	0b 5e       	add	r14,	r11	;
    8b36:	0f 4d       	mov	r13,	r15	;
    8b38:	0f 5e       	add	r14,	r15	;
    8b3a:	eb 4f 00 00 	mov.b	@r15,	0(r11)	;
    8b3e:	30 40 2a 8b 	br	#0x8b2a		;

00008b42 <memset>:
    8b42:	0f 4c       	mov	r12,	r15	;
    8b44:	0e 5c       	add	r12,	r14	;

00008b46 <.L2>:
    8b46:	0f 9e       	cmp	r14,	r15	;
    8b48:	01 20       	jnz	$+4      	;abs 0x8b4c

00008b4a <.Loc.104.1>:
    8b4a:	30 41       	ret			

00008b4c <.L3>:
    8b4c:	cf 4d 00 00 	mov.b	r13,	0(r15)	;
    8b50:	1f 53       	inc	r15		;

00008b52 <.LVL4>:
    8b52:	30 40 46 8b 	br	#0x8b46		;

00008b56 <L0>:
    8b56:	30 41       	ret			

00008b58 <__do_global_ctors_aux>:
    8b58:	0a 12       	push	r10		;
    8b5a:	3a 40 08 81 	mov	#33032,	r10	;#0x8108

00008b5e <.L2>:
    8b5e:	2c 4a       	mov	@r10,	r12	;
    8b60:	3c 93       	cmp	#-1,	r12	;r3 As==11
    8b62:	02 20       	jnz	$+6      	;abs 0x8b68
    8b64:	3a 41       	pop	r10		;
    8b66:	30 41       	ret			

00008b68 <.L3>:
    8b68:	8c 12       	call	r12		;
    8b6a:	3a 50 fe ff 	add	#65534,	r10	;#0xfffe
    8b6e:	30 40 5e 8b 	br	#0x8b5e		;

00008b72 <call___do_global_ctors_aux>:
    8b72:	b0 12 16 82 	call	#33302		;#0x8216
    8b76:	b0 12 58 8b 	call	#35672		;#0x8b58

00008b7a <L0>:
    8b7a:	b0 12 4e 81 	call	#33102		;#0x814e

00008b7e <.Loc.19.1>:
    8b7e:	b0 12 40 81 	call	#33088		;#0x8140

00008b82 <.Loc.20.1>:
    8b82:	30 41       	ret			

00008b84 <__msp430_fini>:
    8b84:	b0 12 5c 81 	call	#33116		;#0x815c

00008b88 <L0>:
    8b88:	b0 12 c8 81 	call	#33224		;#0x81c8

00008b8c <L0>:
    8b8c:	30 41       	ret			
